0000000000032980 P _ZNKSt7__cxx1112basic_stringIcSt11char_traitsIcESaIcEE7compareERKS4_
0000000000032990 P _ZNSt7__cxx1112basic_stringIcSt11char_traitsIcESaIcEEaSERKS4_
00000000000329a0 P __errno_location
00000000000329b0 P htons
00000000000329c0 P syscall
00000000000329d0 P isspace
00000000000329e0 P bind
00000000000329f0 P _ZSt29_Rb_tree_insert_and_rebalancebPSt18_Rb_tree_node_baseS0_RS_
0000000000032a00 P _ZNSaIcED2Ev
0000000000032a10 P socket
0000000000032a20 P _ZNKSt7__cxx1112basic_stringIcSt11char_traitsIcESaIcEE7compareEPKc
0000000000032a30 P accept
0000000000032a40 P strerror
0000000000032a50 P write
0000000000032a60 P _ZSt17__throw_bad_allocv
0000000000032a70 P readv
0000000000032a80 P __cxa_begin_catch
0000000000032a90 P _ZNKSt7__cxx1112basic_stringIcSt11char_traitsIcESaIcEE5c_strEv
0000000000032aa0 P _ZNSt7__cxx1112basic_stringIcSt11char_traitsIcESaIcEEC1ERKS4_
0000000000032ab0 P memcmp
0000000000032ac0 P accept4
0000000000032ad0 P __cxa_allocate_exception
0000000000032ae0 P _ZSt20__throw_length_errorPKc
0000000000032af0 P memset
0000000000032b00 P fcntl
0000000000032b10 P _ZNSt7__cxx1112basic_stringIcSt11char_traitsIcESaIcEE3endEv
0000000000032b20 P _ZNSt7__cxx1112basic_stringIcSt11char_traitsIcESaIcEEC1EOS4_
0000000000032b30 P _ZSt28_Rb_tree_rebalance_for_erasePSt18_Rb_tree_node_baseRS_
0000000000032b40 P _ZNSt7__cxx1112basic_stringIcSt11char_traitsIcESaIcEE7replaceEN9__gnu_cxx17__normal_iteratorIPKcS4_EES9_S8_S8_
0000000000032b50 P _ZNSt7__cxx1112basic_stringIcSt11char_traitsIcESaIcEED1Ev
0000000000032b60 P __assert_fail
0000000000032b70 P _ZSt20__throw_system_errori
0000000000032b80 P _ZNSt7__cxx1112basic_stringIcSt11char_traitsIcESaIcEE13_M_set_lengthEm
0000000000032b90 P _ZSt18_Rb_tree_incrementPSt18_Rb_tree_node_base
0000000000032ba0 P _ZNKSt7__cxx1112basic_stringIcSt11char_traitsIcESaIcEE4sizeEv
0000000000032bb0 P _ZSt19__throw_logic_errorPKc
0000000000032bc0 P _ZNSt7__cxx1112basic_stringIcSt11char_traitsIcESaIcEE4swapERS4_
0000000000032bd0 P __cxa_free_exception
0000000000032be0 P open
0000000000032bf0 P getsockopt
0000000000032c00 P htonl
0000000000032c10 P _ZNSolsEPKv
0000000000032c20 P _ZNSt7__cxx1112basic_stringIcSt11char_traitsIcESaIcEE13_M_local_dataEv
0000000000032c30 P _ZNSt7__cxx1112basic_stringIcSt11char_traitsIcESaIcEE7_M_dataEPc
0000000000032c40 P _ZNSt7__cxx1112basic_stringIcSt11char_traitsIcESaIcEE5beginEv
0000000000032c50 P __cxa_atexit
0000000000032c60 P _ZStlsIcSt11char_traitsIcESaIcEERSt13basic_ostreamIT_T0_ES7_RKNSt7__cxx1112basic_stringIS4_S5_T1_EE
0000000000032c70 P getsockname
0000000000032c80 P _ZdlPv
0000000000032c90 P _ZStlsISt11char_traitsIcEERSt13basic_ostreamIcT_ES5_PKc
0000000000032ca0 P _Znwm
0000000000032cb0 P _ZdlPvm
0000000000032cc0 P _ZSt18_Rb_tree_decrementPSt18_Rb_tree_node_base
0000000000032cd0 P _ZNSolsEPFRSoS_E
0000000000032ce0 P _ZNSt7__cxx1112basic_stringIcSt11char_traitsIcESaIcEE12_Alloc_hiderC1EPcRKS3_
0000000000032cf0 P inet_ntop
0000000000032d00 P _ZNSaIcED1Ev
0000000000032d10 P _ZNKSt7__cxx1112basic_stringIcSt11char_traitsIcESaIcEE7_M_dataEv
0000000000032d20 P _ZNSt7__cxx1112basic_stringIcSt11char_traitsIcESaIcEE13_S_copy_charsEPcPKcS7_
0000000000032d30 P _ZNSt13runtime_errorD2Ev
0000000000032d40 P listen
0000000000032d50 P _ZSt18_Rb_tree_incrementPKSt18_Rb_tree_node_base
0000000000032d60 P exit
0000000000032d70 P _ZNSt7__cxx1112basic_stringIcSt11char_traitsIcESaIcEE10_M_disposeEv
0000000000032d80 P eventfd
0000000000032d90 P _ZNKSt7__cxx1112basic_stringIcSt11char_traitsIcESaIcEE4dataEv
0000000000032da0 P _ZNSt13runtime_errorC2ERKS_
0000000000032db0 P _ZNSt7__cxx1112basic_stringIcSt11char_traitsIcESaIcEEC1EPKcRKS3_
0000000000032dc0 P shutdown
0000000000032dd0 P _ZNSt7__cxx1112basic_stringIcSt11char_traitsIcESaIcEE6resizeEm
0000000000032de0 P _ZNSt7__cxx1112basic_stringIcSt11char_traitsIcESaIcEEC1Ev
0000000000032df0 P strcmp
0000000000032e00 P _ZNSaIcEC2ERKS_
0000000000032e10 P read
0000000000032e20 P __cxa_rethrow
0000000000032e30 P pthread_mutex_lock
0000000000032e40 P _ZNKSt7__cxx1112basic_stringIcSt11char_traitsIcESaIcEE6lengthEv
0000000000032e50 P poll
0000000000032e60 P _ZNSt8ios_base4InitC1Ev
0000000000032e70 P puts
0000000000032e80 P snprintf
0000000000032e90 P memmove
0000000000032ea0 P __cxa_end_catch
0000000000032eb0 P _ZNKSt7__cxx1112basic_stringIcSt11char_traitsIcESaIcEE5emptyEv
0000000000032ec0 P __cxa_throw
0000000000032ed0 P _ZNSolsEi
0000000000032ee0 P bzero
0000000000032ef0 P _Unwind_Resume
0000000000032f00 P _ZNSaIcEC1Ev
0000000000032f10 P setsockopt
0000000000032f20 P _ZNSt7__cxx1112basic_stringIcSt11char_traitsIcESaIcEE9_M_createERmm
0000000000032f30 P ntohs
0000000000032f40 P _ZNSolsEl
0000000000032f50 P _ZNSt9exceptionD2Ev
0000000000032f60 P _ZNSt13runtime_errorC2EPKc
0000000000032f70 P inet_pton
0000000000032f80 P _ZNSt7__cxx1112basic_stringIcSt11char_traitsIcESaIcEE6appendEPKc
0000000000032f90 P close
0000000000032fa0 P _ZNSt7__cxx1112basic_stringIcSt11char_traitsIcESaIcEE11_M_capacityEm
0000000000032fb0 P _ZNSt7__cxx1112basic_stringIcSt11char_traitsIcESaIcEEixEm
0000000000032fc0 P __dynsym_end
0000000000032fd0 T _start
00000000000330da T main
00000000000331b4 t _Z41__static_initialization_and_destruction_0ii
0000000000033203 t _GLOBAL__sub_I_main
000000000003321e w _ZN10HttpServerD2Ev
0000000000033244 T _ZN11HttpContext18processRequestLineEPKcS1_
0000000000033428 T _ZN11HttpContext12parseRequestEP6Bufferi
000000000003359d w _ZN9__gnu_cxx5__ops20__iter_equal_to_iterEv
00000000000335a9 w _ZnwmPv
00000000000335c5 w _ZdlPvS_
00000000000335de w _ZNK6Buffer13readableBytesEv
0000000000033608 w _ZNK6Buffer4peekEv
0000000000033636 w _ZN6Buffer8retrieveEm
0000000000033698 w _ZN6Buffer13retrieveUntilEPKc
0000000000033742 w _ZN6Buffer10beginWriteEv
0000000000033770 w _ZNK6Buffer10beginWriteEv
000000000003379e w _ZNK6Buffer8findCRLFEv
0000000000033814 w _ZN6Buffer5beginEv
0000000000033844 w _ZNK6Buffer5beginEv
0000000000033874 w _ZN11HttpRequest10setVersionENS_7VersionE
0000000000033896 w _ZN11HttpRequest9setMethodEPKcS1_
0000000000033a02 w _ZN11HttpRequest7setPathEPKcS1_
0000000000033a3a w _ZN11HttpRequest8setQueryEPKcS1_
0000000000033a72 w _ZN11HttpRequest9addHeaderEPKcS1_S1_
0000000000033c2c w _ZNSt7__cxx1112basic_stringIcSt11char_traitsIcESaIcEE12_Alloc_hiderD2Ev
0000000000033c4e w _ZNSt6vectorIcSaIcEE5beginEv
0000000000033c79 w _ZSt6searchIPKcS1_ET_S2_S2_T0_S3_
0000000000033cc4 w _ZNK9__gnu_cxx17__normal_iteratorIPcSt6vectorIcSaIcEEEdeEv
0000000000033ce0 w _ZNKSt6vectorIcSaIcEE5beginEv
0000000000033d16 w _ZNK9__gnu_cxx17__normal_iteratorIPKcSt6vectorIcSaIcEEEdeEv
0000000000033d32 w _ZNSt7__cxx1112basic_stringIcSt11char_traitsIcESaIcEEC2IPKcvEET_S8_RKS3_
0000000000033db0 w _ZSteqIcSt11char_traitsIcESaIcEEbRKNSt7__cxx1112basic_stringIT_T0_T1_EEPKS5_
0000000000033de0 w _ZNSt7__cxx1112basic_stringIcSt11char_traitsIcESaIcEE6assignIPKcvEERS4_T_S9_
0000000000033e62 w _ZNSt3mapINSt7__cxx1112basic_stringIcSt11char_traitsIcESaIcEEES5_St4lessIS5_ESaISt4pairIKS5_S5_EEEixERS9_
0000000000033f62 w _ZSt4findIPKccET_S2_S2_RKT0_
0000000000033fa0 w _ZSt5equalIPKcS1_EbT_S2_T0_
0000000000033ffe w _ZNSt7__cxx1112basic_stringIcSt11char_traitsIcESaIcEE12_M_constructIPKcEEvT_S8_
000000000003403c w _ZN9__gnu_cxx17__normal_iteratorIPcSt6vectorIcSaIcEEEC2ERKS1_
0000000000034063 w _ZSt8__searchIPKcS1_N9__gnu_cxx5__ops19_Iter_equal_to_iterEET_S5_S5_T0_S6_T1_
00000000000341bc w _ZN9__gnu_cxx17__normal_iteratorIPKcSt6vectorIcSaIcEEEC2ERKS2_
00000000000341e4 w _ZNSt8_Rb_treeINSt7__cxx1112basic_stringIcSt11char_traitsIcESaIcEEESt4pairIKS5_S5_ESt10_Select1stIS8_ESt4lessIS5_ESaIS8_EE8_M_beginEv
0000000000034200 w _ZN9__gnu_cxx17__normal_iteratorIPKcNSt7__cxx1112basic_stringIcSt11char_traitsIcESaIcEEEEC2IPcEERKNS0_IT_NS_11__enable_ifIXsrSt10__are_sameISC_SB_E7__valueES8_E6__typeEEE
0000000000034230 w _ZNSt3mapINSt7__cxx1112basic_stringIcSt11char_traitsIcESaIcEEES5_St4lessIS5_ESaISt4pairIKS5_S5_EEE11lower_boundERS9_
000000000003425c w _ZNSt3mapINSt7__cxx1112basic_stringIcSt11char_traitsIcESaIcEEES5_St4lessIS5_ESaISt4pairIKS5_S5_EEE3endEv
000000000003427c w _ZNKSt17_Rb_tree_iteratorISt4pairIKNSt7__cxx1112basic_stringIcSt11char_traitsIcESaIcEEES6_EEeqERKS9_
00000000000342a8 w _ZNKSt3mapINSt7__cxx1112basic_stringIcSt11char_traitsIcESaIcEEES5_St4lessIS5_ESaISt4pairIKS5_S5_EEE8key_compEv
00000000000342d0 w _ZNKSt17_Rb_tree_iteratorISt4pairIKNSt7__cxx1112basic_stringIcSt11char_traitsIcESaIcEEES6_EEdeEv
00000000000342f4 w _ZNKSt4lessINSt7__cxx1112basic_stringIcSt11char_traitsIcESaIcEEEEclERKS5_S8_
0000000000034324 w _ZNSt5tupleIJRKNSt7__cxx1112basic_stringIcSt11char_traitsIcESaIcEEEEEC2IvLb1EEES7_
0000000000034350 w _ZNSt23_Rb_tree_const_iteratorISt4pairIKNSt7__cxx1112basic_stringIcSt11char_traitsIcESaIcEEES6_EEC2ERKSt17_Rb_tree_iteratorIS8_E
0000000000034378 w _ZNSt8_Rb_treeINSt7__cxx1112basic_stringIcSt11char_traitsIcESaIcEEESt4pairIKS5_S5_ESt10_Select1stIS8_ESt4lessIS5_ESaIS8_EE22_M_emplace_hint_uniqueIJRKSt21piecewise_construct_tSt5tupleIJRS7_EESJ_IJEEEEESt17_Rb_tree_iteratorIS8_ESt23_Rb_tree_const_iteratorIS8_EDpOT_
0000000000034496 w _ZNKSt13_Rb_tree_nodeISt4pairIKNSt7__cxx1112basic_stringIcSt11char_traitsIcESaIcEEES6_EE9_M_valptrEv
00000000000344ba w _ZN9__gnu_cxx5__ops17__iter_equals_valIKcEENS0_16_Iter_equals_valIT_EERS4_
00000000000344e5 w _ZSt9__find_ifIPKcN9__gnu_cxx5__ops16_Iter_equals_valIS0_EEET_S6_S6_T0_
0000000000034532 w _ZSt12__niter_baseIPKcET_S2_
000000000003454a w _ZSt11__equal_auxIPKcS1_EbT_S2_T0_
0000000000034582 w _ZNSt7__cxx1112basic_stringIcSt11char_traitsIcESaIcEE16_M_construct_auxIPKcEEvT_S8_St12__false_type
00000000000345c0 w _ZN9__gnu_cxx5__ops16__iter_comp_iterIPKcEENS0_17_Iter_equals_iterIT_EENS0_19_Iter_equal_to_iterES5_
00000000000345eb w _ZSt9__find_ifIPKcN9__gnu_cxx5__ops17_Iter_equals_iterIS1_EEET_S6_S6_T0_
0000000000034638 w _ZNK9__gnu_cxx5__ops19_Iter_equal_to_iterclIPKcS4_EEbT_T0_
0000000000034667 w _ZNSt8_Rb_treeINSt7__cxx1112basic_stringIcSt11char_traitsIcESaIcEEESt4pairIKS5_S5_ESt10_Select1stIS8_ESt4lessIS5_ESaIS8_EE8_S_rightEPSt18_Rb_tree_node_base
0000000000034683 w _ZNSt8_Rb_treeINSt7__cxx1112basic_stringIcSt11char_traitsIcESaIcEEESt4pairIKS5_S5_ESt10_Select1stIS8_ESt4lessIS5_ESaIS8_EE7_S_leftEPSt18_Rb_tree_node_base
00000000000346a0 w _ZNSt8_Rb_treeINSt7__cxx1112basic_stringIcSt11char_traitsIcESaIcEEESt4pairIKS5_S5_ESt10_Select1stIS8_ESt4lessIS5_ESaIS8_EE12_M_drop_nodeEPSt13_Rb_tree_nodeIS8_E
00000000000346e0 w _ZNK9__gnu_cxx17__normal_iteratorIPcNSt7__cxx1112basic_stringIcSt11char_traitsIcESaIcEEEE4baseEv
00000000000346f8 w _ZNSt8_Rb_treeINSt7__cxx1112basic_stringIcSt11char_traitsIcESaIcEEESt4pairIKS5_S5_ESt10_Select1stIS8_ESt4lessIS5_ESaIS8_EE11lower_boundERS7_
000000000003474a w _ZNSt8_Rb_treeINSt7__cxx1112basic_stringIcSt11char_traitsIcESaIcEEESt4pairIKS5_S5_ESt10_Select1stIS8_ESt4lessIS5_ESaIS8_EE3endEv
000000000003477a w _ZNKSt8_Rb_treeINSt7__cxx1112basic_stringIcSt11char_traitsIcESaIcEEESt4pairIKS5_S5_ESt10_Select1stIS8_ESt4lessIS5_ESaIS8_EE8key_compEv
000000000003478e w _ZNSt13_Rb_tree_nodeISt4pairIKNSt7__cxx1112basic_stringIcSt11char_traitsIcESaIcEEES6_EE9_M_valptrEv
00000000000347b2 w _ZStltIcSt11char_traitsIcESaIcEEbRKNSt7__cxx1112basic_stringIT_T0_T1_EESA_
00000000000347e0 w _ZNSt11_Tuple_implILm0EJRKNSt7__cxx1112basic_stringIcSt11char_traitsIcESaIcEEEEEC1ES7_
000000000003480c w _ZSt7forwardIRKSt21piecewise_construct_tEOT_RNSt16remove_referenceIS3_E4typeE
0000000000034824 w _ZSt7forwardISt5tupleIJRKNSt7__cxx1112basic_stringIcSt11char_traitsIcESaIcEEEEEEOT_RNSt16remove_referenceISA_E4typeE
000000000003483c w _ZSt7forwardISt5tupleIJEEEOT_RNSt16remove_referenceIS2_E4typeE
0000000000034854 w _ZNSt8_Rb_treeINSt7__cxx1112basic_stringIcSt11char_traitsIcESaIcEEESt4pairIKS5_S5_ESt10_Select1stIS8_ESt4lessIS5_ESaIS8_EE14_M_create_nodeIJRKSt21piecewise_construct_tSt5tupleIJRS7_EESJ_IJEEEEEPSt13_Rb_tree_nodeIS8_EDpOT_
00000000000348d6 w _ZNSt8_Rb_treeINSt7__cxx1112basic_stringIcSt11char_traitsIcESaIcEEESt4pairIKS5_S5_ESt10_Select1stIS8_ESt4lessIS5_ESaIS8_EE29_M_get_insert_hint_unique_posESt23_Rb_tree_const_iteratorIS8_ERS7_
0000000000034d2e w _ZNSt8_Rb_treeINSt7__cxx1112basic_stringIcSt11char_traitsIcESaIcEEESt4pairIKS5_S5_ESt10_Select1stIS8_ESt4lessIS5_ESaIS8_EE6_S_keyEPKSt13_Rb_tree_nodeIS8_E
0000000000034d60 w _ZNSt8_Rb_treeINSt7__cxx1112basic_stringIcSt11char_traitsIcESaIcEEESt4pairIKS5_S5_ESt10_Select1stIS8_ESt4lessIS5_ESaIS8_EE14_M_insert_nodeEPSt18_Rb_tree_node_baseSG_PSt13_Rb_tree_nodeIS8_E
0000000000034e2a w _ZNSt17_Rb_tree_iteratorISt4pairIKNSt7__cxx1112basic_stringIcSt11char_traitsIcESaIcEEES6_EEC2EPSt18_Rb_tree_node_base
0000000000034e4e w _ZNSt8_Rb_treeINSt7__cxx1112basic_stringIcSt11char_traitsIcESaIcEEESt4pairIKS5_S5_ESt10_Select1stIS8_ESt4lessIS5_ESaIS8_EE6_S_keyEPKSt18_Rb_tree_node_base
0000000000034e80 w _ZNK9__gnu_cxx16__aligned_membufISt4pairIKNSt7__cxx1112basic_stringIcSt11char_traitsIcESaIcEEES7_EE6_M_ptrEv
0000000000034ea0 w _ZNSt8_Rb_treeINSt7__cxx1112basic_stringIcSt11char_traitsIcESaIcEEESt4pairIKS5_S5_ESt10_Select1stIS8_ESt4lessIS5_ESaIS8_EE11_M_leftmostEv
0000000000034ebc w _ZNSt8_Rb_treeINSt7__cxx1112basic_stringIcSt11char_traitsIcESaIcEEESt4pairIKS5_S5_ESt10_Select1stIS8_ESt4lessIS5_ESaIS8_EE12_M_rightmostEv
0000000000034ed8 w _ZNSt8_Rb_treeINSt7__cxx1112basic_stringIcSt11char_traitsIcESaIcEEESt4pairIKS5_S5_ESt10_Select1stIS8_ESt4lessIS5_ESaIS8_EE6_M_endEv
0000000000034ef4 w _ZNSt8_Rb_treeINSt7__cxx1112basic_stringIcSt11char_traitsIcESaIcEEESt4pairIKS5_S5_ESt10_Select1stIS8_ESt4lessIS5_ESaIS8_EE21_M_get_Node_allocatorEv
0000000000034f0c w _ZN9__gnu_cxx5__ops16_Iter_equals_valIKcEC2ERS2_
0000000000034f30 w _ZSt19__iterator_categoryIPKcENSt15iterator_traitsIT_E17iterator_categoryERKS3_
0000000000034f44 w _ZSt9__find_ifIPKcN9__gnu_cxx5__ops16_Iter_equals_valIS0_EEET_S6_S6_T0_St26random_access_iterator_tag
00000000000350ab w _ZNSt7__equalILb1EE5equalIcEEbPKT_S4_S4_
0000000000035104 w _ZNSt7__cxx1112basic_stringIcSt11char_traitsIcESaIcEE12_M_constructIPKcEEvT_S8_St20forward_iterator_tag
000000000003521e w _ZN9__gnu_cxx5__ops17_Iter_equals_iterIPKcEC1ES3_
0000000000035242 w _ZSt9__find_ifIPKcN9__gnu_cxx5__ops17_Iter_equals_iterIS1_EEET_S6_S6_T0_St26random_access_iterator_tag
00000000000353aa w _ZNSt8_Rb_treeINSt7__cxx1112basic_stringIcSt11char_traitsIcESaIcEEESt4pairIKS5_S5_ESt10_Select1stIS8_ESt4lessIS5_ESaIS8_EE15_M_destroy_nodeEPSt13_Rb_tree_nodeIS8_E
00000000000353f0 w _ZNSt8_Rb_treeINSt7__cxx1112basic_stringIcSt11char_traitsIcESaIcEEESt4pairIKS5_S5_ESt10_Select1stIS8_ESt4lessIS5_ESaIS8_EE11_M_put_nodeEPSt13_Rb_tree_nodeIS8_E
000000000003542c w _ZNSt8_Rb_treeINSt7__cxx1112basic_stringIcSt11char_traitsIcESaIcEEESt4pairIKS5_S5_ESt10_Select1stIS8_ESt4lessIS5_ESaIS8_EE14_M_lower_boundEPSt13_Rb_tree_nodeIS8_EPSt18_Rb_tree_node_baseRS7_
00000000000354c8 w _ZN9__gnu_cxx16__aligned_membufISt4pairIKNSt7__cxx1112basic_stringIcSt11char_traitsIcESaIcEEES7_EE6_M_ptrEv
00000000000354e8 w _ZNSt10_Head_baseILm0ERKNSt7__cxx1112basic_stringIcSt11char_traitsIcESaIcEEELb0EEC1ES7_
000000000003550c w _ZNSt8_Rb_treeINSt7__cxx1112basic_stringIcSt11char_traitsIcESaIcEEESt4pairIKS5_S5_ESt10_Select1stIS8_ESt4lessIS5_ESaIS8_EE11_M_get_nodeEv
000000000003553a w _ZNSt8_Rb_treeINSt7__cxx1112basic_stringIcSt11char_traitsIcESaIcEEESt4pairIKS5_S5_ESt10_Select1stIS8_ESt4lessIS5_ESaIS8_EE17_M_construct_nodeIJRKSt21piecewise_construct_tSt5tupleIJRS7_EESJ_IJEEEEEvPSt13_Rb_tree_nodeIS8_EDpOT_
0000000000035616 w _ZNKSt23_Rb_tree_const_iteratorISt4pairIKNSt7__cxx1112basic_stringIcSt11char_traitsIcESaIcEEES6_EE13_M_const_castEv
0000000000035644 w _ZNKSt8_Rb_treeINSt7__cxx1112basic_stringIcSt11char_traitsIcESaIcEEESt4pairIKS5_S5_ESt10_Select1stIS8_ESt4lessIS5_ESaIS8_EE4sizeEv
0000000000035660 w _ZNSt4pairIPSt18_Rb_tree_node_baseS1_EC1IRS1_Lb1EEERKS1_OT_
00000000000356a2 w _ZNSt8_Rb_treeINSt7__cxx1112basic_stringIcSt11char_traitsIcESaIcEEESt4pairIKS5_S5_ESt10_Select1stIS8_ESt4lessIS5_ESaIS8_EE24_M_get_insert_unique_posERS7_
000000000003581e w _ZNSt4pairIPSt18_Rb_tree_node_baseS1_EC2IRS1_S4_Lb1EEEOT_OT0_
0000000000035868 w _ZNSt17_Rb_tree_iteratorISt4pairIKNSt7__cxx1112basic_stringIcSt11char_traitsIcESaIcEEES6_EEmmEv
000000000003589a w _ZNSt17_Rb_tree_iteratorISt4pairIKNSt7__cxx1112basic_stringIcSt11char_traitsIcESaIcEEES6_EEppEv
00000000000358cc w _ZNSt4pairIPSt18_Rb_tree_node_baseS1_EC2IRS1_Lb1EEEOT_RKS1_
000000000003590e w _ZNSt8_Rb_treeINSt7__cxx1112basic_stringIcSt11char_traitsIcESaIcEEESt4pairIKS5_S5_ESt10_Select1stIS8_ESt4lessIS5_ESaIS8_EE8_S_valueEPKSt13_Rb_tree_nodeIS8_E
000000000003592e w _ZNKSt10_Select1stISt4pairIKNSt7__cxx1112basic_stringIcSt11char_traitsIcESaIcEEES6_EEclERKS8_
000000000003594a w _ZNSt8_Rb_treeINSt7__cxx1112basic_stringIcSt11char_traitsIcESaIcEEESt4pairIKS5_S5_ESt10_Select1stIS8_ESt4lessIS5_ESaIS8_EE8_S_valueEPKSt18_Rb_tree_node_base
000000000003596a w _ZNK9__gnu_cxx16__aligned_membufISt4pairIKNSt7__cxx1112basic_stringIcSt11char_traitsIcESaIcEEES7_EE7_M_addrEv
0000000000035982 w _ZN9__gnu_cxx5__ops16_Iter_equals_valIKcEclIPS2_EEbT_
00000000000359b0 w _ZN9__gnu_cxx17__is_null_pointerIKcEEbPT_
00000000000359cc w _ZSt8distanceIPKcENSt15iterator_traitsIT_E15difference_typeES3_S3_
0000000000035a12 w _ZN9__gnu_cxx5__ops17_Iter_equals_iterIPKcEclIS3_EEbT_
0000000000035a40 w _ZNSt16allocator_traitsISaISt13_Rb_tree_nodeISt4pairIKNSt7__cxx1112basic_stringIcSt11char_traitsIcESaIcEEES7_EEEE7destroyIS9_EEvRSB_PT_
0000000000035a6c w _ZNSt16allocator_traitsISaISt13_Rb_tree_nodeISt4pairIKNSt7__cxx1112basic_stringIcSt11char_traitsIcESaIcEEES7_EEEE10deallocateERSB_PSA_m
0000000000035aa0 w _ZN9__gnu_cxx16__aligned_membufISt4pairIKNSt7__cxx1112basic_stringIcSt11char_traitsIcESaIcEEES7_EE7_M_addrEv
0000000000035ab8 w _ZNSt16allocator_traitsISaISt13_Rb_tree_nodeISt4pairIKNSt7__cxx1112basic_stringIcSt11char_traitsIcESaIcEEES7_EEEE8allocateERSB_m
0000000000035ae8 w _ZNSt16allocator_traitsISaISt13_Rb_tree_nodeISt4pairIKNSt7__cxx1112basic_stringIcSt11char_traitsIcESaIcEEES7_EEEE9constructIS9_JRKSt21piecewise_construct_tSt5tupleIJRS8_EESH_IJEEEEEvRSB_PT_DpOT0_
0000000000035b5a w _ZSt7forwardIRPSt18_Rb_tree_node_baseEOT_RNSt16remove_referenceIS3_E4typeE
0000000000035b72 w _ZNSt8_Rb_treeINSt7__cxx1112basic_stringIcSt11char_traitsIcESaIcEEESt4pairIKS5_S5_ESt10_Select1stIS8_ESt4lessIS5_ESaIS8_EE5beginEv
0000000000035ba2 w _ZNSt4pairIPSt18_Rb_tree_node_baseS1_EC2IRPSt13_Rb_tree_nodeIS_IKNSt7__cxx1112basic_stringIcSt11char_traitsIcESaIcEEESA_EERS1_Lb1EEEOT_OT0_
0000000000035bec w _ZSt10__distanceIPKcENSt15iterator_traitsIT_E15difference_typeES3_S3_St26random_access_iterator_tag
0000000000035c12 w _ZNSt4pairIKNSt7__cxx1112basic_stringIcSt11char_traitsIcESaIcEEES5_ED1Ev
0000000000035c44 w _ZN9__gnu_cxx13new_allocatorISt13_Rb_tree_nodeISt4pairIKNSt7__cxx1112basic_stringIcSt11char_traitsIcESaIcEEES8_EEE7destroyISA_EEvPT_
0000000000035c6a w _ZN9__gnu_cxx13new_allocatorISt13_Rb_tree_nodeISt4pairIKNSt7__cxx1112basic_stringIcSt11char_traitsIcESaIcEEES8_EEE10deallocateEPSB_m
0000000000035c94 w _ZN9__gnu_cxx13new_allocatorISt13_Rb_tree_nodeISt4pairIKNSt7__cxx1112basic_stringIcSt11char_traitsIcESaIcEEES8_EEE8allocateEmPKv
0000000000035ce6 w _ZNSt5tupleIJRKNSt7__cxx1112basic_stringIcSt11char_traitsIcESaIcEEEEEC1EOS8_
0000000000035d12 w _ZN9__gnu_cxx13new_allocatorISt13_Rb_tree_nodeISt4pairIKNSt7__cxx1112basic_stringIcSt11char_traitsIcESaIcEEES8_EEE9constructISA_JRKSt21piecewise_construct_tSt5tupleIJRS9_EESH_IJEEEEEvPT_DpOT0_
0000000000035dcc w _ZSt7forwardIRPSt13_Rb_tree_nodeISt4pairIKNSt7__cxx1112basic_stringIcSt11char_traitsIcESaIcEEES7_EEEOT_RNSt16remove_referenceISD_E4typeE
0000000000035de4 w _ZNK9__gnu_cxx13new_allocatorISt13_Rb_tree_nodeISt4pairIKNSt7__cxx1112basic_stringIcSt11char_traitsIcESaIcEEES8_EEE8max_sizeEv
0000000000035e02 w _ZNSt11_Tuple_implILm0EJRKNSt7__cxx1112basic_stringIcSt11char_traitsIcESaIcEEEEEC1EOS8_
0000000000035e44 w _ZNSt4pairIKNSt7__cxx1112basic_stringIcSt11char_traitsIcESaIcEEES5_EC1IJRS6_EJEEESt21piecewise_construct_tSt5tupleIJDpT_EESB_IJDpT0_EE
0000000000035e7c w _ZNSt11_Tuple_implILm0EJRKNSt7__cxx1112basic_stringIcSt11char_traitsIcESaIcEEEEE7_M_headERS8_
0000000000035e9c w _ZSt7forwardIRKNSt7__cxx1112basic_stringIcSt11char_traitsIcESaIcEEEEOT_RNSt16remove_referenceIS8_E4typeE
0000000000035eb4 w _ZNSt4pairIKNSt7__cxx1112basic_stringIcSt11char_traitsIcESaIcEEES5_EC2IJRS6_EJLm0EEJEJEEERSt5tupleIJDpT_EERSA_IJDpT1_EESt12_Index_tupleIJXspT0_EEESJ_IJXspT2_EEE
0000000000035f0a w _ZNSt10_Head_baseILm0ERKNSt7__cxx1112basic_stringIcSt11char_traitsIcESaIcEEELb0EE7_M_headERS8_
0000000000035f25 w _ZSt3getILm0EJRKNSt7__cxx1112basic_stringIcSt11char_traitsIcESaIcEEEEERNSt13tuple_elementIXT_ESt5tupleIJDpT0_EEE4typeERSC_
0000000000035f45 w _ZSt12__get_helperILm0ERKNSt7__cxx1112basic_stringIcSt11char_traitsIcESaIcEEEJEERT0_RSt11_Tuple_implIXT_EJS8_DpT1_EE
0000000000035f66 T _ZNK12HttpResponse14appendToBufferEP6Buffer
000000000003656a w _ZNK6Buffer13writableBytesEv
000000000003659c w _ZNK6Buffer16prependableBytesEv
00000000000365b8 w _ZN6Buffer6appendERKNSt7__cxx1112basic_stringIcSt11char_traitsIcESaIcEEE
0000000000036608 w _ZN6Buffer6appendEPKcm
0000000000036678 w _ZN6Buffer19ensureWritableBytesEm
00000000000366ec w _ZN6Buffer10hasWrittenEm
000000000003671c w _ZN6Buffer9makeSpaceEm
0000000000036878 w _ZNKSt6vectorIcSaIcEE4sizeEv
00000000000368a4 w _ZSt4copyIPKcPcET0_T_S4_S3_
00000000000368f6 w _ZNSt6vectorIcSaIcEE6resizeEm
0000000000036984 w _ZSt4copyIPcS0_ET0_T_S2_S1_
00000000000369d6 w _ZNKSt3mapINSt7__cxx1112basic_stringIcSt11char_traitsIcESaIcEEES5_St4lessIS5_ESaISt4pairIKS5_S5_EEE5beginEv
00000000000369f6 w _ZNKSt3mapINSt7__cxx1112basic_stringIcSt11char_traitsIcESaIcEEES5_St4lessIS5_ESaISt4pairIKS5_S5_EEE3endEv
0000000000036a16 w _ZNKSt23_Rb_tree_const_iteratorISt4pairIKNSt7__cxx1112basic_stringIcSt11char_traitsIcESaIcEEES6_EEneERKS9_
0000000000036a42 w _ZNSt23_Rb_tree_const_iteratorISt4pairIKNSt7__cxx1112basic_stringIcSt11char_traitsIcESaIcEEES6_EEppEv
0000000000036a74 w _ZNKSt23_Rb_tree_const_iteratorISt4pairIKNSt7__cxx1112basic_stringIcSt11char_traitsIcESaIcEEES6_EEdeEv
0000000000036a97 w _ZNSt16allocator_traitsISaIcEE8allocateERS0_m
0000000000036ac8 w _ZNSt12_Vector_baseIcSaIcEE19_M_get_Tp_allocatorEv
0000000000036ae0 w _ZSt8_DestroyIPccEvT_S1_RSaIT0_E
0000000000036b10 w _ZSt12__miter_baseIPKcET_S2_
0000000000036b28 w _ZSt14__copy_move_a2ILb0EPKcPcET1_T0_S4_S3_
0000000000036b86 w _ZNSt6vectorIcSaIcEE17_M_default_appendEm
0000000000036d88 w _ZNSt6vectorIcSaIcEE15_M_erase_at_endEPc
0000000000036dd3 w _ZSt12__miter_baseIPcET_S1_
0000000000036deb w _ZSt14__copy_move_a2ILb0EPcS0_ET1_T0_S2_S1_
0000000000036e4a w _ZNKSt8_Rb_treeINSt7__cxx1112basic_stringIcSt11char_traitsIcESaIcEEESt4pairIKS5_S5_ESt10_Select1stIS8_ESt4lessIS5_ESaIS8_EE5beginEv
0000000000036e7a w _ZNKSt8_Rb_treeINSt7__cxx1112basic_stringIcSt11char_traitsIcESaIcEEESt4pairIKS5_S5_ESt10_Select1stIS8_ESt4lessIS5_ESaIS8_EE3endEv
0000000000036ea9 w _ZNSt16allocator_traitsISaIcEE10deallocateERS0_Pcm
0000000000036ede w _ZN9__gnu_cxx13new_allocatorIcE8allocateEmPKv
0000000000036f22 w _ZNSt12_Vector_baseIcSaIcEE13_M_deallocateEPcm
0000000000036f5d w _ZSt27__uninitialized_default_n_aIPcmcET_S1_T0_RSaIT1_E
0000000000036f8c w _ZSt8_DestroyIPcEvT_S1_
0000000000036fb8 w _ZSt12__niter_baseIPcET_S1_
0000000000036fd0 w _ZSt13__copy_move_aILb0EPKcPcET1_T0_S4_S3_
0000000000037008 w _ZNKSt6vectorIcSaIcEE12_M_check_lenEmPKc
00000000000370d8 w _ZNSt12_Vector_baseIcSaIcEE11_M_allocateEm
0000000000037111 w _ZSt34__uninitialized_move_if_noexcept_aIPcS0_SaIcEET0_T_S3_S2_RT1_
000000000003716b w _ZSt13__copy_move_aILb0EPcS0_ET1_T0_S2_S1_
00000000000371a2 w _ZNSt23_Rb_tree_const_iteratorISt4pairIKNSt7__cxx1112basic_stringIcSt11char_traitsIcESaIcEEES6_EEC2EPKSt18_Rb_tree_node_base
00000000000371c6 w _ZN9__gnu_cxx13new_allocatorIcE10deallocateEPcm
00000000000371f0 w _ZNK9__gnu_cxx13new_allocatorIcE8max_sizeEv
000000000003720b w _ZSt25__uninitialized_default_nIPcmET_S1_T0_
000000000003723a w _ZNSt12_Destroy_auxILb1EE9__destroyIPcEEvT_S3_
0000000000037253 w _ZNSt11__copy_moveILb0ELb1ESt26random_access_iterator_tagE8__copy_mIcEEPT_PKS3_S6_S4_
00000000000372aa w _ZNKSt6vectorIcSaIcEE8max_sizeEv
00000000000372d2 w _ZSt3maxImERKT_S2_S2_
0000000000037307 w _ZSt32__make_move_if_noexcept_iteratorIcSt13move_iteratorIPcEET0_PT_
0000000000037332 w _ZSt22__uninitialized_copy_aISt13move_iteratorIPcES1_cET0_T_S4_S3_RSaIT1_E
0000000000037369 w _ZNSt27__uninitialized_default_n_1ILb1EE18__uninit_default_nIPcmEET_S3_T0_
000000000003739c w _ZNSt16allocator_traitsISaIcEE8max_sizeERKS0_
00000000000373bc w _ZNKSt12_Vector_baseIcSaIcEE19_M_get_Tp_allocatorEv
00000000000373d4 w _ZNSt13move_iteratorIPcEC1ES0_
00000000000373f8 w _ZSt18uninitialized_copyISt13move_iteratorIPcES1_ET0_T_S4_S3_
000000000003742f w _ZSt6fill_nIPcmcET_S1_T0_RKT1_
000000000003746d w _ZNSt20__uninitialized_copyILb1EE13__uninit_copyISt13move_iteratorIPcES3_EET0_T_S6_S5_
00000000000374a0 w _ZSt10__fill_n_aImcEN9__gnu_cxx11__enable_ifIXsrSt9__is_byteIT0_E7__valueEPS3_E6__typeES5_T_RKS3_
00000000000374e6 w _ZSt4copyISt13move_iteratorIPcES1_ET0_T_S4_S3_
0000000000037538 w _ZSt8__fill_aIcEN9__gnu_cxx11__enable_ifIXsrSt9__is_byteIT_E7__valueEvE6__typeEPS3_S7_RKS3_
0000000000037591 w _ZSt12__miter_baseIPcEDTcl12__miter_basecldtfp_4baseEEESt13move_iteratorIT_E
00000000000375b9 w _ZSt14__copy_move_a2ILb1EPcS0_ET1_T0_S2_S1_
0000000000037618 w _ZNKSt13move_iteratorIPcE4baseEv
0000000000037633 w _ZSt13__copy_move_aILb1EPcS0_ET1_T0_S2_S1_
000000000003766a w _ZNSt11__copy_moveILb1ELb1ESt26random_access_iterator_tagE8__copy_mIcEEPT_PKS3_S6_S4_
00000000000376c2 T _Z19defaultHttpCallbackRK11HttpRequestP12HttpResponse
000000000003777e T _ZN10HttpServerC2EP9EventLoopRK11InetAddress
0000000000037970 T _ZN10HttpServer5startEv
0000000000037996 T _ZN10HttpServer12onConnectionERKN5boost10shared_ptrI13TcpConnectionEE
0000000000037a84 T _ZN10HttpServer9onMessageERKN5boost10shared_ptrI13TcpConnectionEEP6Bufferi
0000000000037b40 T _ZN10HttpServer9onRequestERKN5boost10shared_ptrI13TcpConnectionEERK11HttpRequest
0000000000037d6a T _ZN10HttpServer11setResponseERK11HttpRequestP12HttpResponse
0000000000038575 t _Z41__static_initialization_and_destruction_0ii
00000000000385c4 t _GLOBAL__sub_I__Z19defaultHttpCallbackRK11HttpRequestP12HttpResponse
00000000000385e0 w _ZNKSt9type_infoeqERKS_
0000000000038648 w _ZN5boost9typeindex14stl_type_indexC2ERKSt9type_info
000000000003866c w _ZNK5boost9typeindex14stl_type_index9type_infoEv
0000000000038688 w _ZNK5boost9typeindex14stl_type_index5equalERKS1_
00000000000386ba w _ZN5boost13function_baseC2Ev
00000000000386da w _ZNK5boost13function_base5emptyEv
00000000000386fc w _ZNK5boost13function_base28has_trivial_copy_and_destroyEv
0000000000038720 w _ZN5boost6detail8function16has_empty_targetEz
0000000000038732 w _ZN6BufferC2Ev
0000000000038844 w _ZN5boost3anyC2ERKS0_
0000000000038898 w _ZN5boost3anyD2Ev
00000000000388d6 w _ZN5boost3any4swapERS0_
0000000000038906 w _ZN5boost3anyaSERKS0_
0000000000038954 w _ZNK5boost3any4typeEv
00000000000389a8 w _ZN5boost3any11placeholderD2Ev
00000000000389cc w _ZN5boost3any11placeholderD0Ev
00000000000389fe w _ZNK13TcpConnection9connectedEv
0000000000038a20 w _ZN13TcpConnection10setContextERKN5boost3anyE
0000000000038a54 w _ZN13TcpConnection17getMutableContextEv
0000000000038a72 w _ZNSt18_Rb_tree_node_base10_S_minimumEPS_
0000000000038aa5 w _ZNSt18_Rb_tree_node_base10_S_maximumEPS_
0000000000038ad8 w _ZNSt15_Rb_tree_headerC1Ev
0000000000038b04 w _ZNSt15_Rb_tree_headerC2EOS_
0000000000038b56 w _ZNSt15_Rb_tree_header12_M_move_dataERS_
0000000000038bd8 w _ZNSt15_Rb_tree_header8_M_resetEv
0000000000038c1e w _ZN9TcpServer21setConnectionCallbackERKN5boost8functionIFvRKNS0_10shared_ptrI13TcpConnectionEEEEE
0000000000038c4e w _ZN9TcpServer18setMessageCallbackERKN5boost8functionIFvRKNS0_10shared_ptrI13TcpConnectionEEP6BufferiEEE
0000000000038c7e w _ZNSt8_Rb_treeINSt7__cxx1112basic_stringIcSt11char_traitsIcESaIcEEESt4pairIKS5_S5_ESt10_Select1stIS8_ESt4lessIS5_ESaIS8_EE13_Rb_tree_implISC_Lb1EEC2Ev
0000000000038cbc w _ZNSt8_Rb_treeINSt7__cxx1112basic_stringIcSt11char_traitsIcESaIcEEESt4pairIKS5_S5_ESt10_Select1stIS8_ESt4lessIS5_ESaIS8_EE13_Rb_tree_implISC_Lb1EED1Ev
0000000000038cde w _ZNSt8_Rb_treeINSt7__cxx1112basic_stringIcSt11char_traitsIcESaIcEEESt4pairIKS5_S5_ESt10_Select1stIS8_ESt4lessIS5_ESaIS8_EEC2Ev
0000000000038d00 w _ZNSt3mapINSt7__cxx1112basic_stringIcSt11char_traitsIcESaIcEEES5_St4lessIS5_ESaISt4pairIKS5_S5_EEEC2Ev
0000000000038d22 w _ZNSt3mapINSt7__cxx1112basic_stringIcSt11char_traitsIcESaIcEEES5_St4lessIS5_ESaISt4pairIKS5_S5_EEED2Ev
0000000000038d44 w _ZN11HttpRequestC2Ev
0000000000038d9e w _ZNK11HttpRequest10getVersionEv
0000000000038dba w _ZNK11HttpRequest12methodStringEv
0000000000038e4e w _ZNK11HttpRequest4pathB5cxx11Ev
0000000000038e6a w _ZNK11HttpRequest9getHeaderERKNSt7__cxx1112basic_stringIcSt11char_traitsIcESaIcEEE
0000000000038f20 w _ZNK11HttpRequest7headersB5cxx11Ev
0000000000038f3c w _ZN11HttpRequest4swapERS_
0000000000038fd4 w _ZN11HttpRequestD2Ev
000000000003901a w _ZN11HttpContextC1Ev
000000000003904a w _ZNK11HttpContext6gotAllEv
000000000003906a w _ZN11HttpContext5resetEv
00000000000390c4 w _ZN11HttpContext7requestEv
00000000000390e0 w _ZN12HttpResponseC1Eb
000000000003913c w _ZN12HttpResponse13setStatusCodeENS_14HttpStatusCodeE
000000000003915e w _ZN12HttpResponse16setStatusMessageERKNSt7__cxx1112basic_stringIcSt11char_traitsIcESaIcEEE
000000000003918e w _ZN12HttpResponse18setCloseConnectionEb
00000000000391b4 w _ZNK12HttpResponse15closeConnectionEv
00000000000391d0 w _ZN12HttpResponse14setContentTypeERKNSt7__cxx1112basic_stringIcSt11char_traitsIcESaIcEEE
000000000003926e w _ZN12HttpResponse9addHeaderERKNSt7__cxx1112basic_stringIcSt11char_traitsIcESaIcEEES7_
00000000000392b0 w _ZN12HttpResponse7setBodyERKNSt7__cxx1112basic_stringIcSt11char_traitsIcESaIcEEE
00000000000392e0 w _ZN5boost3argILi1EEC1Ev
00000000000392f6 w _ZN5boost3argILi2EEC1Ev
000000000003930c w _ZN5boost3argILi3EEC1Ev
0000000000039322 w _ZN5boost8functionIFvRKNS_10shared_ptrI13TcpConnectionEEEED2Ev
0000000000039344 w _ZN5boost8functionIFvRKNS_10shared_ptrI13TcpConnectionEEP6BufferiEED1Ev
0000000000039366 w _ZN11HttpContextD1Ev
000000000003938c w _ZN12HttpResponseD1Ev
00000000000393ce w _ZN6BufferD2Ev
00000000000393ef w _ZN5boost9typeindex7type_idIvEENS0_14stl_type_indexEv
0000000000039400 w _ZNSt6vectorIcSaIcEEC1EmRKS0_
0000000000039468 w _ZNSt6vectorIcSaIcEED2Ev
00000000000394b2 w _ZSt4moveIRmEONSt16remove_referenceIT_E4typeEOS2_
00000000000394ca w _ZSt4swapImENSt9enable_ifIXsrSt6__and_IJSt6__not_ISt15__is_tuple_likeIT_EESt21is_move_constructibleIS4_ESt18is_move_assignableIS4_EEE5valueEvE4typeERS4_SE_
0000000000039522 w _ZSt4moveIRPN5boost3any11placeholderEEONSt16remove_referenceIT_E4typeEOS6_
000000000003953a w _ZSt4swapIPN5boost3any11placeholderEENSt9enable_ifIXsrSt6__and_IJSt6__not_ISt15__is_tuple_likeIT_EESt21is_move_constructibleIS8_ESt18is_move_assignableIS8_EEE5valueEvE4typeERS8_SI_
0000000000039592 w _ZN5boost8functionIFvRKNS_10shared_ptrI13TcpConnectionEEEEaSERKS7_
0000000000039602 w _ZN5boost8functionIFvRKNS_10shared_ptrI13TcpConnectionEEP6BufferiEEaSERKS9_
0000000000039672 w _ZNSaISt13_Rb_tree_nodeISt4pairIKNSt7__cxx1112basic_stringIcSt11char_traitsIcESaIcEEES6_EEEC2Ev
0000000000039694 w _ZNSaISt13_Rb_tree_nodeISt4pairIKNSt7__cxx1112basic_stringIcSt11char_traitsIcESaIcEEES6_EEED2Ev
00000000000396b6 w _ZNSt20_Rb_tree_key_compareISt4lessINSt7__cxx1112basic_stringIcSt11char_traitsIcESaIcEEEEEC2Ev
00000000000396cc w _ZNSt8_Rb_treeINSt7__cxx1112basic_stringIcSt11char_traitsIcESaIcEEESt4pairIKS5_S5_ESt10_Select1stIS8_ESt4lessIS5_ESaIS8_EED1Ev
000000000003970c w _ZNKSt3mapINSt7__cxx1112basic_stringIcSt11char_traitsIcESaIcEEES5_St4lessIS5_ESaISt4pairIKS5_S5_EEE4findERS9_
0000000000039738 w _ZNKSt23_Rb_tree_const_iteratorISt4pairIKNSt7__cxx1112basic_stringIcSt11char_traitsIcESaIcEEES6_EEptEv
000000000003975b w _ZSt4moveIRN11HttpRequest6MethodEEONSt16remove_referenceIT_E4typeEOS4_
0000000000039773 w _ZSt4swapIN11HttpRequest6MethodEENSt9enable_ifIXsrSt6__and_IJSt6__not_ISt15__is_tuple_likeIT_EESt21is_move_constructibleIS6_ESt18is_move_assignableIS6_EEE5valueEvE4typeERS6_SG_
00000000000397c5 w _ZSt4moveIRN11HttpRequest7VersionEEONSt16remove_referenceIT_E4typeEOS4_
00000000000397dd w _ZSt4swapIN11HttpRequest7VersionEENSt9enable_ifIXsrSt6__and_IJSt6__not_ISt15__is_tuple_likeIT_EESt21is_move_constructibleIS6_ESt18is_move_assignableIS6_EEE5valueEvE4typeERS6_SG_
0000000000039830 w _ZNSt3mapINSt7__cxx1112basic_stringIcSt11char_traitsIcESaIcEEES5_St4lessIS5_ESaISt4pairIKS5_S5_EEE4swapERSC_
000000000003985c w _ZN5boost4bindIv10HttpServerRKNS_10shared_ptrI13TcpConnectionEEPS1_NS_3argILi1EEEEENS_3_bi6bind_tIT_NS_4_mfi3mf1ISC_T0_T1_EENSA_9list_av_2IT2_T3_E4typeEEEMSF_FSC_SG_ESJ_SK_
00000000000398ec w _ZN5boost8functionIFvRKNS_10shared_ptrI13TcpConnectionEEEEC1INS_3_bi6bind_tIvNS_4_mfi3mf1Iv10HttpServerS5_EENS9_5list2INS9_5valueIPSD_EENS_3argILi1EEEEEEEEET_NS_11enable_if_cIXntsrNS_11is_integralISN_EE5valueEiE4typeE
0000000000039926 w _ZN5boost9function1IvRKNS_10shared_ptrI13TcpConnectionEEED2Ev
0000000000039947 w _ZN5boost4bindIv10HttpServerRKNS_10shared_ptrI13TcpConnectionEEP6BufferiPS1_NS_3argILi1EEENSA_ILi2EEENSA_ILi3EEEEENS_3_bi6bind_tIT_NS_4_mfi3mf3ISG_T0_T1_T2_T3_EENSE_9list_av_4IT4_T5_T6_T7_E4typeEEEMSJ_FSG_SK_SL_SM_ESP_SQ_SR_SS_
00000000000399e4 w _ZN5boost8functionIFvRKNS_10shared_ptrI13TcpConnectionEEP6BufferiEEC2INS_3_bi6bind_tIvNS_4_mfi3mf3Iv10HttpServerS5_S7_iEENSB_5list4INSB_5valueIPSF_EENS_3argILi1EEENSL_ILi2EEENSL_ILi3EEEEEEEEET_NS_11enable_if_cIXntsrNS_11is_integralISR_EE5valueEiE4typeE
0000000000039a1e w _ZN5boost9function3IvRKNS_10shared_ptrI13TcpConnectionEEP6BufferiED1Ev
0000000000039a40 w _ZNK5boost10shared_ptrI13TcpConnectionEptEv
0000000000039a86 w _ZN5boost3anyC1I11HttpContextEEOT_PNS_10disable_ifINS_7is_sameIRS0_S3_EEvE4typeEPNS5_INS_8is_constIS3_EEvE4typeE
0000000000039ad0 w _ZN5boost8any_castI11HttpContextEEPT_PNS_3anyE
0000000000039b28 w _ZStneIcSt11char_traitsIcESaIcEEbRKNSt7__cxx1112basic_stringIT_T0_T1_EEPKS5_
0000000000039b56 w _ZN5boost9typeindex14stl_type_index7type_idIvEES1_v
0000000000039b7e w _ZNSt12_Vector_baseIcSaIcEE12_Vector_implD1Ev
0000000000039ba0 w _ZNSt12_Vector_baseIcSaIcEEC2EmRKS0_
0000000000039c04 w _ZNSt12_Vector_baseIcSaIcEED2Ev
0000000000039c56 w _ZNSt6vectorIcSaIcEE21_M_default_initializeEm
0000000000039ca0 w _ZN5boost8functionIFvRKNS_10shared_ptrI13TcpConnectionEEEEC1ERKS7_
0000000000039ccc w _ZN5boost9function1IvRKNS_10shared_ptrI13TcpConnectionEEE4swapERS6_
0000000000039d62 w _ZN5boost8functionIFvRKNS_10shared_ptrI13TcpConnectionEEP6BufferiEEC2ERKS9_
0000000000039d8e w _ZN5boost9function3IvRKNS_10shared_ptrI13TcpConnectionEEP6BufferiE4swapERS8_
0000000000039e24 w _ZN9__gnu_cxx13new_allocatorISt13_Rb_tree_nodeISt4pairIKNSt7__cxx1112basic_stringIcSt11char_traitsIcESaIcEEES8_EEEC2Ev
0000000000039e3a w _ZN9__gnu_cxx13new_allocatorISt13_Rb_tree_nodeISt4pairIKNSt7__cxx1112basic_stringIcSt11char_traitsIcESaIcEEES8_EEED1Ev
0000000000039e50 w _ZNSt8_Rb_treeINSt7__cxx1112basic_stringIcSt11char_traitsIcESaIcEEESt4pairIKS5_S5_ESt10_Select1stIS8_ESt4lessIS5_ESaIS8_EE8_M_eraseEPSt13_Rb_tree_nodeIS8_E
0000000000039ebc w _ZNKSt8_Rb_treeINSt7__cxx1112basic_stringIcSt11char_traitsIcESaIcEEESt4pairIKS5_S5_ESt10_Select1stIS8_ESt4lessIS5_ESaIS8_EE4findERS7_
0000000000039f72 w _ZNSt8_Rb_treeINSt7__cxx1112basic_stringIcSt11char_traitsIcESaIcEEESt4pairIKS5_S5_ESt10_Select1stIS8_ESt4lessIS5_ESaIS8_EE4swapERSE_
000000000003a124 w _ZN5boost4_mfi3mf1Iv10HttpServerRKNS_10shared_ptrI13TcpConnectionEEEC2EMS2_FvS7_E
000000000003a15e w _ZN5boost3_bi5valueIP10HttpServerEC1ERKS3_
000000000003a186 w _ZN5boost3_bi5list2INS0_5valueIP10HttpServerEENS_3argILi1EEEEC1ES5_S7_
000000000003a1bc w _ZN5boost3_bi6bind_tIvNS_4_mfi3mf1Iv10HttpServerRKNS_10shared_ptrI13TcpConnectionEEEENS0_5list2INS0_5valueIPS4_EENS_3argILi1EEEEEEC1ESA_RKSH_
000000000003a208 w _ZN5boost9function1IvRKNS_10shared_ptrI13TcpConnectionEEEC1INS_3_bi6bind_tIvNS_4_mfi3mf1Iv10HttpServerS5_EENS8_5list2INS8_5valueIPSC_EENS_3argILi1EEEEEEEEET_NS_11enable_if_cIXntsrNS_11is_integralISM_EE5valueEiE4typeE
000000000003a24a w _ZN5boost9function1IvRKNS_10shared_ptrI13TcpConnectionEEE5clearEv
000000000003a2ac w _ZN5boost4_mfi3mf3Iv10HttpServerRKNS_10shared_ptrI13TcpConnectionEEP6BufferiEC2EMS2_FvS7_S9_iE
000000000003a2e6 w _ZN5boost3_bi5list4INS0_5valueIP10HttpServerEENS_3argILi1EEENS6_ILi2EEENS6_ILi3EEEEC1ES5_S7_S8_S9_
000000000003a320 w _ZN5boost3_bi6bind_tIvNS_4_mfi3mf3Iv10HttpServerRKNS_10shared_ptrI13TcpConnectionEEP6BufferiEENS0_5list4INS0_5valueIPS4_EENS_3argILi1EEENSH_ILi2EEENSH_ILi3EEEEEEC1ESC_RKSL_
000000000003a36c w _ZN5boost9function3IvRKNS_10shared_ptrI13TcpConnectionEEP6BufferiEC1INS_3_bi6bind_tIvNS_4_mfi3mf3Iv10HttpServerS5_S7_iEENSA_5list4INSA_5valueIPSE_EENS_3argILi1EEENSK_ILi2EEENSK_ILi3EEEEEEEEET_NS_11enable_if_cIXntsrNS_11is_integralISQ_EE5valueEiE4typeE
000000000003a3ae w _ZN5boost9function3IvRKNS_10shared_ptrI13TcpConnectionEEP6BufferiE5clearEv
000000000003a410 w _ZN5boost3any11placeholderC2Ev
000000000003a434 w _ZNSt8_Rb_treeINSt7__cxx1112basic_stringIcSt11char_traitsIcESaIcEEESt4pairIKS5_S5_ESt10_Select1stIS8_ESt4lessIS5_ESaIS8_EE13_Rb_tree_implISC_Lb1EEC1EOSG_
000000000003a48e w _ZNSt8_Rb_treeINSt7__cxx1112basic_stringIcSt11char_traitsIcESaIcEEESt4pairIKS5_S5_ESt10_Select1stIS8_ESt4lessIS5_ESaIS8_EEC1EOSE_
000000000003a4ba w _ZNSt3mapINSt7__cxx1112basic_stringIcSt11char_traitsIcESaIcEEES5_St4lessIS5_ESaISt4pairIKS5_S5_EEEC1EOSC_
000000000003a4e6 w _ZN11HttpRequestC1EOS_
000000000003a56a w _ZN11HttpContextC2EOS_
000000000003a5aa w _ZN5boost3any6holderI11HttpContextEC2EOS2_
000000000003a5f4 w _ZN5boost9typeindex7type_idI11HttpContextEENS0_14stl_type_indexEv
000000000003a605 w _ZN5boost9typeindexeqINS0_14stl_type_indexESt9type_infoEEbRKT0_RKNS0_17type_index_facadeIT_S4_EE
000000000003a644 w _ZNSt12_Vector_baseIcSaIcEE12_Vector_implC1ERKS0_
000000000003a694 w _ZNSt12_Vector_baseIcSaIcEE17_M_create_storageEm
000000000003a6f0 w _ZN5boost9function1IvRKNS_10shared_ptrI13TcpConnectionEEEC2ERKS6_
000000000003a728 w _ZN5boost9function1IvRKNS_10shared_ptrI13TcpConnectionEEEC1Ev
000000000003a74a w _ZN5boost9function1IvRKNS_10shared_ptrI13TcpConnectionEEE11move_assignERS6_
000000000003a83a w _ZN5boost9function3IvRKNS_10shared_ptrI13TcpConnectionEEP6BufferiEC1ERKS8_
000000000003a872 w _ZN5boost9function3IvRKNS_10shared_ptrI13TcpConnectionEEP6BufferiEC1Ev
000000000003a894 w _ZN5boost9function3IvRKNS_10shared_ptrI13TcpConnectionEEP6BufferiE11move_assignERS8_
000000000003a984 w _ZNKSt8_Rb_treeINSt7__cxx1112basic_stringIcSt11char_traitsIcESaIcEEESt4pairIKS5_S5_ESt10_Select1stIS8_ESt4lessIS5_ESaIS8_EE8_M_beginEv
000000000003a9a0 w _ZNKSt8_Rb_treeINSt7__cxx1112basic_stringIcSt11char_traitsIcESaIcEEESt4pairIKS5_S5_ESt10_Select1stIS8_ESt4lessIS5_ESaIS8_EE6_M_endEv
000000000003a9bc w _ZNKSt8_Rb_treeINSt7__cxx1112basic_stringIcSt11char_traitsIcESaIcEEESt4pairIKS5_S5_ESt10_Select1stIS8_ESt4lessIS5_ESaIS8_EE14_M_lower_boundEPKSt13_Rb_tree_nodeIS8_EPKSt18_Rb_tree_node_baseRS7_
000000000003aa58 w _ZNKSt23_Rb_tree_const_iteratorISt4pairIKNSt7__cxx1112basic_stringIcSt11char_traitsIcESaIcEEES6_EEeqERKS9_
000000000003aa84 w _ZNSt8_Rb_treeINSt7__cxx1112basic_stringIcSt11char_traitsIcESaIcEEESt4pairIKS5_S5_ESt10_Select1stIS8_ESt4lessIS5_ESaIS8_EE7_M_rootEv
000000000003aaa0 w _ZSt4moveIRPSt18_Rb_tree_node_baseEONSt16remove_referenceIT_E4typeEOS4_
000000000003aab8 w _ZSt4swapIPSt18_Rb_tree_node_baseENSt9enable_ifIXsrSt6__and_IJSt6__not_ISt15__is_tuple_likeIT_EESt21is_move_constructibleIS6_ESt18is_move_assignableIS6_EEE5valueEvE4typeERS6_SG_
000000000003ab10 w _ZSt4moveIRSt4lessINSt7__cxx1112basic_stringIcSt11char_traitsIcESaIcEEEEEONSt16remove_referenceIT_E4typeEOSA_
000000000003ab28 w _ZSt4swapISt4lessINSt7__cxx1112basic_stringIcSt11char_traitsIcESaIcEEEEENSt9enable_ifIXsrSt6__and_IJSt6__not_ISt15__is_tuple_likeIT_EESt21is_move_constructibleISC_ESt18is_move_assignableISC_EEE5valueEvE4typeERSC_SM_
000000000003ab65 w _ZN9__gnu_cxx14__alloc_traitsISaISt13_Rb_tree_nodeISt4pairIKNSt7__cxx1112basic_stringIcSt11char_traitsIcESaIcEEES8_EEEE10_S_on_swapERSC_SE_
000000000003ab92 w _ZN5boost3_bi8storage2INS0_5valueIP10HttpServerEENS_3argILi1EEEEC2ES5_S7_
000000000003abbe w _ZN5boost9function1IvRKNS_10shared_ptrI13TcpConnectionEEE9assign_toINS_3_bi6bind_tIvNS_4_mfi3mf1Iv10HttpServerS5_EENS8_5list2INS8_5valueIPSC_EENS_3argILi1EEEEEEEEEvT_
000000000003ac28 w _ZNK5boost9function1IvRKNS_10shared_ptrI13TcpConnectionEEE10get_vtableEv
000000000003ac48 w _ZNK5boost6detail8function13basic_vtable1IvRKNS_10shared_ptrI13TcpConnectionEEE5clearERNS1_15function_bufferE
000000000003ac86 w _ZN5boost3_bi8storage4INS0_5valueIP10HttpServerEENS_3argILi1EEENS6_ILi2EEENS6_ILi3EEEEC2ES5_S7_S8_S9_
000000000003acba w _ZN5boost9function3IvRKNS_10shared_ptrI13TcpConnectionEEP6BufferiE9assign_toINS_3_bi6bind_tIvNS_4_mfi3mf3Iv10HttpServerS5_S7_iEENSA_5list4INSA_5valueIPSE_EENS_3argILi1EEENSK_ILi2EEENSK_ILi3EEEEEEEEEvT_
000000000003ad24 w _ZNK5boost9function3IvRKNS_10shared_ptrI13TcpConnectionEEP6BufferiE10get_vtableEv
000000000003ad44 w _ZNK5boost6detail8function13basic_vtable3IvRKNS_10shared_ptrI13TcpConnectionEEP6BufferiE5clearERNS1_15function_bufferE
000000000003ad82 w _ZNSaISt13_Rb_tree_nodeISt4pairIKNSt7__cxx1112basic_stringIcSt11char_traitsIcESaIcEEES6_EEEC2ERKSA_
000000000003adae w _ZNSt20_Rb_tree_key_compareISt4lessINSt7__cxx1112basic_stringIcSt11char_traitsIcESaIcEEEEEC2EOS8_
000000000003adc8 w _ZN5boost9typeindex14stl_type_index7type_idI11HttpContextEES1_v
000000000003adef w _ZN5boost9typeindexeqINS0_14stl_type_indexESt9type_infoEEbRKNS0_17type_index_facadeIT_T0_EES9_
000000000003ae1a w _ZN5boost9function1IvRKNS_10shared_ptrI13TcpConnectionEEE13assign_to_ownERKS6_
000000000003aeb0 w _ZN5boost9function3IvRKNS_10shared_ptrI13TcpConnectionEEP6BufferiE13assign_to_ownERKS8_
000000000003af45 w _ZNSt8_Rb_treeINSt7__cxx1112basic_stringIcSt11char_traitsIcESaIcEEESt4pairIKS5_S5_ESt10_Select1stIS8_ESt4lessIS5_ESaIS8_EE7_S_leftEPKSt18_Rb_tree_node_base
000000000003af61 w _ZNSt8_Rb_treeINSt7__cxx1112basic_stringIcSt11char_traitsIcESaIcEEESt4pairIKS5_S5_ESt10_Select1stIS8_ESt4lessIS5_ESaIS8_EE8_S_rightEPKSt18_Rb_tree_node_base
000000000003af7d w _ZSt15__alloc_on_swapISaISt13_Rb_tree_nodeISt4pairIKNSt7__cxx1112basic_stringIcSt11char_traitsIcESaIcEEES7_EEEEvRT_SD_
000000000003afb2 w _ZN5boost3_bi8storage1INS0_5valueIP10HttpServerEEEC2ES5_
000000000003afd6 w _ZN5boost6detail8function15functor_managerINS_3_bi6bind_tIvNS_4_mfi3mf1Iv10HttpServerRKNS_10shared_ptrI13TcpConnectionEEEENS3_5list2INS3_5valueIPS7_EENS_3argILi1EEEEEEEE6manageERKNS1_15function_bufferERSN_NS1_30functor_manager_operation_typeE
000000000003b04b w _ZN5boost6detail8function26void_function_obj_invoker1INS_3_bi6bind_tIvNS_4_mfi3mf1Iv10HttpServerRKNS_10shared_ptrI13TcpConnectionEEEENS3_5list2INS3_5valueIPS7_EENS_3argILi1EEEEEEEvSC_E6invokeERNS1_15function_bufferESC_
000000000003b08a w _ZNK5boost6detail8function13basic_vtable1IvRKNS_10shared_ptrI13TcpConnectionEEE9assign_toINS_3_bi6bind_tIvNS_4_mfi3mf1Iv10HttpServerS7_EENSA_5list2INSA_5valueIPSE_EENS_3argILi1EEEEEEEEEbT_RNS1_15function_bufferE
000000000003b0c4 w _ZN5boost3_bi8storage3INS0_5valueIP10HttpServerEENS_3argILi1EEENS6_ILi2EEEEC1ES5_S7_S8_
000000000003b0f9 w _ZN5boost6detail8function15functor_managerINS_3_bi6bind_tIvNS_4_mfi3mf3Iv10HttpServerRKNS_10shared_ptrI13TcpConnectionEEP6BufferiEENS3_5list4INS3_5valueIPS7_EENS_3argILi1EEENSK_ILi2EEENSK_ILi3EEEEEEEE6manageERKNS1_15function_bufferERSR_NS1_30functor_manager_operation_typeE
000000000003b16e w _ZN5boost6detail8function26void_function_obj_invoker3INS_3_bi6bind_tIvNS_4_mfi3mf3Iv10HttpServerRKNS_10shared_ptrI13TcpConnectionEEP6BufferiEENS3_5list4INS3_5valueIPS7_EENS_3argILi1EEENSK_ILi2EEENSK_ILi3EEEEEEEvSC_SE_iE6invokeERNS1_15function_bufferESC_SE_i
000000000003b1e0 w _ZNK5boost6detail8function13basic_vtable3IvRKNS_10shared_ptrI13TcpConnectionEEP6BufferiE9assign_toINS_3_bi6bind_tIvNS_4_mfi3mf3Iv10HttpServerS7_S9_iEENSC_5list4INSC_5valueIPSG_EENS_3argILi1EEENSM_ILi2EEENSM_ILi3EEEEEEEEEbT_RNS1_15function_bufferE
000000000003b21a w _ZN9__gnu_cxx13new_allocatorISt13_Rb_tree_nodeISt4pairIKNSt7__cxx1112basic_stringIcSt11char_traitsIcESaIcEEES8_EEEC2ERKSC_
000000000003b233 w _ZSt18__do_alloc_on_swapISaISt13_Rb_tree_nodeISt4pairIKNSt7__cxx1112basic_stringIcSt11char_traitsIcESaIcEEES7_EEEEvRT_SD_St17integral_constantIbLb0EE
000000000003b24c w _ZN5boost9typeindex7type_idINS_3_bi6bind_tIvNS_4_mfi3mf1Iv10HttpServerRKNS_10shared_ptrI13TcpConnectionEEEENS2_5list2INS2_5valueIPS6_EENS_3argILi1EEEEEEEEENS0_14stl_type_indexEv
000000000003b25d w _ZN5boost6detail8function15functor_managerINS_3_bi6bind_tIvNS_4_mfi3mf1Iv10HttpServerRKNS_10shared_ptrI13TcpConnectionEEEENS3_5list2INS3_5valueIPS7_EENS_3argILi1EEEEEEEE7managerERKNS1_15function_bufferERSN_NS1_30functor_manager_operation_typeENS1_16function_obj_tagE
000000000003b299 w _ZN5boost7forwardIRKNS_10shared_ptrI13TcpConnectionEEEEOT_RNS_11move_detail16remove_referenceIS6_E4typeE
000000000003b2b2 w _ZN5boost3_bi6bind_tIvNS_4_mfi3mf1Iv10HttpServerRKNS_10shared_ptrI13TcpConnectionEEEENS0_5list2INS0_5valueIPS4_EENS_3argILi1EEEEEEclIS9_EEvOT_
000000000003b308 w _ZNK5boost6detail8function13basic_vtable1IvRKNS_10shared_ptrI13TcpConnectionEEE9assign_toINS_3_bi6bind_tIvNS_4_mfi3mf1Iv10HttpServerS7_EENSA_5list2INSA_5valueIPSE_EENS_3argILi1EEEEEEEEEbT_RNS1_15function_bufferENS1_16function_obj_tagE
000000000003b38a w _ZN5boost9typeindex7type_idINS_3_bi6bind_tIvNS_4_mfi3mf3Iv10HttpServerRKNS_10shared_ptrI13TcpConnectionEEP6BufferiEENS2_5list4INS2_5valueIPS6_EENS_3argILi1EEENSJ_ILi2EEENSJ_ILi3EEEEEEEEENS0_14stl_type_indexEv
000000000003b39b w _ZN5boost6detail8function15functor_managerINS_3_bi6bind_tIvNS_4_mfi3mf3Iv10HttpServerRKNS_10shared_ptrI13TcpConnectionEEP6BufferiEENS3_5list4INS3_5valueIPS7_EENS_3argILi1EEENSK_ILi2EEENSK_ILi3EEEEEEEE7managerERKNS1_15function_bufferERSR_NS1_30functor_manager_operation_typeENS1_16function_obj_tagE
000000000003b3d7 w _ZN5boost7forwardIP6BufferEEOT_RNS_11move_detail16remove_referenceIS3_E4typeE
000000000003b3ef w _ZN5boost7forwardIiEEOT_RNS_11move_detail16remove_referenceIS1_E4typeE
000000000003b408 w _ZN5boost3_bi6bind_tIvNS_4_mfi3mf3Iv10HttpServerRKNS_10shared_ptrI13TcpConnectionEEP6BufferiEENS0_5list4INS0_5valueIPS4_EENS_3argILi1EEENSH_ILi2EEENSH_ILi3EEEEEEclIS9_SB_iEEvOT_OT0_OT1_
000000000003b46c w _ZNK5boost6detail8function13basic_vtable3IvRKNS_10shared_ptrI13TcpConnectionEEP6BufferiE9assign_toINS_3_bi6bind_tIvNS_4_mfi3mf3Iv10HttpServerS7_S9_iEENSC_5list4INSC_5valueIPSG_EENS_3argILi1EEENSM_ILi2EEENSM_ILi3EEEEEEEEEbT_RNS1_15function_bufferENS1_16function_obj_tagE
000000000003b4ee w _ZN5boost9typeindex14stl_type_index7type_idINS_3_bi6bind_tIvNS_4_mfi3mf1Iv10HttpServerRKNS_10shared_ptrI13TcpConnectionEEEENS3_5list2INS3_5valueIPS7_EENS_3argILi1EEEEEEEEES1_v
000000000003b515 w _ZN5boost6detail8function15functor_managerINS_3_bi6bind_tIvNS_4_mfi3mf1Iv10HttpServerRKNS_10shared_ptrI13TcpConnectionEEEENS3_5list2INS3_5valueIPS7_EENS_3argILi1EEEEEEEE7managerERKNS1_15function_bufferERSN_NS1_30functor_manager_operation_typeEN4mpl_5bool_ILb1EEE
000000000003b548 w _ZN5boost3_bi7rrlist1IRKNS_10shared_ptrI13TcpConnectionEEEC2ES6_
000000000003b56c w _ZN5boost3_bi5list2INS0_5valueIP10HttpServerEENS_3argILi1EEEEclINS_4_mfi3mf1IvS3_RKNS_10shared_ptrI13TcpConnectionEEEENS0_7rrlist1ISG_EEEEvNS0_4typeIvEERT_RT0_i
000000000003b5e4 w _ZNK5boost6detail8function13basic_vtable1IvRKNS_10shared_ptrI13TcpConnectionEEE14assign_functorINS_3_bi6bind_tIvNS_4_mfi3mf1Iv10HttpServerS7_EENSA_5list2INSA_5valueIPSE_EENS_3argILi1EEEEEEEEEvT_RNS1_15function_bufferEN4mpl_5bool_ILb1EEE
000000000003b62e w _ZN5boost9typeindex14stl_type_index7type_idINS_3_bi6bind_tIvNS_4_mfi3mf3Iv10HttpServerRKNS_10shared_ptrI13TcpConnectionEEP6BufferiEENS3_5list4INS3_5valueIPS7_EENS_3argILi1EEENSK_ILi2EEENSK_ILi3EEEEEEEEES1_v
000000000003b655 w _ZN5boost6detail8function15functor_managerINS_3_bi6bind_tIvNS_4_mfi3mf3Iv10HttpServerRKNS_10shared_ptrI13TcpConnectionEEP6BufferiEENS3_5list4INS3_5valueIPS7_EENS_3argILi1EEENSK_ILi2EEENSK_ILi3EEEEEEEE7managerERKNS1_15function_bufferERSR_NS1_30functor_manager_operation_typeEN4mpl_5bool_ILb1EEE
000000000003b688 w _ZN5boost3_bi7rrlist3IRKNS_10shared_ptrI13TcpConnectionEEP6BufferiEC2ES6_RS8_Ri
000000000003b6cc w _ZN5boost3_bi5list4INS0_5valueIP10HttpServerEENS_3argILi1EEENS6_ILi2EEENS6_ILi3EEEEclINS_4_mfi3mf3IvS3_RKNS_10shared_ptrI13TcpConnectionEEP6BufferiEENS0_7rrlist3ISI_SK_iEEEEvNS0_4typeIvEERT_RT0_i
000000000003b77e w _ZNK5boost6detail8function13basic_vtable3IvRKNS_10shared_ptrI13TcpConnectionEEP6BufferiE14assign_functorINS_3_bi6bind_tIvNS_4_mfi3mf3Iv10HttpServerS7_S9_iEENSC_5list4INSC_5valueIPSG_EENS_3argILi1EEENSM_ILi2EEENSM_ILi3EEEEEEEEEvT_RNS1_15function_bufferEN4mpl_5bool_ILb1EEE
000000000003b7c7 w _ZN5boost6detail8function22functor_manager_commonINS_3_bi6bind_tIvNS_4_mfi3mf1Iv10HttpServerRKNS_10shared_ptrI13TcpConnectionEEEENS3_5list2INS3_5valueIPS7_EENS_3argILi1EEEEEEEE12manage_smallERKNS1_15function_bufferERSN_NS1_30functor_manager_operation_typeE
000000000003b8c6 w _ZN5boost3_bi9unwrapperINS_4_mfi3mf1Iv10HttpServerRKNS_10shared_ptrI13TcpConnectionEEEEE6unwrapERSA_l
000000000003b8e2 w _ZNK5boost3_bi7rrlist1IRKNS_10shared_ptrI13TcpConnectionEEEixIP10HttpServerEERT_RNS0_5valueISB_EE
000000000003b906 w _ZN5boost3_bi8storage2INS0_5valueIP10HttpServerEENS_3argILi1EEEE3a2_Ev
000000000003b92a w _ZNK5boost3_bi7rrlist1IRKNS_10shared_ptrI13TcpConnectionEEEixEPFNS_3argILi1EEEvE
000000000003b952 w _ZNK5boost4_mfi3mf1Iv10HttpServerRKNS_10shared_ptrI13TcpConnectionEEEclEPS2_S7_
000000000003b9cc w _ZN5boost6detail8function22functor_manager_commonINS_3_bi6bind_tIvNS_4_mfi3mf3Iv10HttpServerRKNS_10shared_ptrI13TcpConnectionEEP6BufferiEENS3_5list4INS3_5valueIPS7_EENS_3argILi1EEENSK_ILi2EEENSK_ILi3EEEEEEEE12manage_smallERKNS1_15function_bufferERSR_NS1_30functor_manager_operation_typeE
000000000003bacb w _ZN5boost3_bi9unwrapperINS_4_mfi3mf3Iv10HttpServerRKNS_10shared_ptrI13TcpConnectionEEP6BufferiEEE6unwrapERSC_l
000000000003bae8 w _ZNK5boost3_bi7rrlist3IRKNS_10shared_ptrI13TcpConnectionEEP6BufferiEixIP10HttpServerEERT_RNS0_5valueISD_EE
000000000003bb0c w _ZNK5boost3_bi7rrlist3IRKNS_10shared_ptrI13TcpConnectionEEP6BufferiEixEPFNS_3argILi1EEEvE
000000000003bb33 w _ZN5boost3_bi8storage3INS0_5valueIP10HttpServerEENS_3argILi1EEENS6_ILi2EEEE3a3_Ev
000000000003bb58 w _ZNK5boost3_bi7rrlist3IRKNS_10shared_ptrI13TcpConnectionEEP6BufferiEixEPFNS_3argILi2EEEvE
000000000003bb80 w _ZN5boost3_bi8storage4INS0_5valueIP10HttpServerEENS_3argILi1EEENS6_ILi2EEENS6_ILi3EEEE3a4_Ev
000000000003bba4 w _ZNK5boost3_bi7rrlist3IRKNS_10shared_ptrI13TcpConnectionEEP6BufferiEixEPFNS_3argILi3EEEvE
000000000003bbcc w _ZNK5boost4_mfi3mf3Iv10HttpServerRKNS_10shared_ptrI13TcpConnectionEEP6BufferiEclEPS2_S7_S9_i
000000000003bc50 w _ZN5boost3_bi5valueIP10HttpServerE3getEv
000000000003bc68 w _ZSt7forwardIRKN5boost10shared_ptrI13TcpConnectionEEEOT_RNSt16remove_referenceIS6_E4typeE
000000000003bc80 w _ZSt7forwardIP6BufferEOT_RNSt16remove_referenceIS2_E4typeE
000000000003bc98 w _ZSt7forwardIiEOT_RNSt16remove_referenceIS0_E4typeE
000000000003bcb0 w _ZN5boost3any6holderI11HttpContextED1Ev
000000000003bcf0 w _ZN5boost3any6holderI11HttpContextED0Ev
000000000003bd22 w _ZNK5boost3any6holderI11HttpContextE4typeEv
000000000003bd4c w _ZNK5boost3any6holderI11HttpContextE5cloneEv
000000000003bdaa w _ZNSt3mapINSt7__cxx1112basic_stringIcSt11char_traitsIcESaIcEEES5_St4lessIS5_ESaISt4pairIKS5_S5_EEEC1ERKSC_
000000000003bdd6 w _ZN11HttpRequestC2ERKS_
000000000003be94 w _ZN11HttpContextC2ERKS_
000000000003bed4 w _ZN5boost3any6holderI11HttpContextEC2ERKS2_
000000000003bf40 w _ZNSt8_Rb_treeINSt7__cxx1112basic_stringIcSt11char_traitsIcESaIcEEESt4pairIKS5_S5_ESt10_Select1stIS8_ESt4lessIS5_ESaIS8_EEC2ERKSE_
000000000003bfca w _ZNSt8_Rb_treeINSt7__cxx1112basic_stringIcSt11char_traitsIcESaIcEEESt4pairIKS5_S5_ESt10_Select1stIS8_ESt4lessIS5_ESaIS8_EE13_Rb_tree_implISC_Lb1EEC2ERKSG_
000000000003c01a w _ZNKSt8_Rb_treeINSt7__cxx1112basic_stringIcSt11char_traitsIcESaIcEEESt4pairIKS5_S5_ESt10_Select1stIS8_ESt4lessIS5_ESaIS8_EE7_M_rootEv
000000000003c036 w _ZNSt8_Rb_treeINSt7__cxx1112basic_stringIcSt11char_traitsIcESaIcEEESt4pairIKS5_S5_ESt10_Select1stIS8_ESt4lessIS5_ESaIS8_EE7_M_copyERKSE_
000000000003c078 w _ZN9__gnu_cxx14__alloc_traitsISaISt13_Rb_tree_nodeISt4pairIKNSt7__cxx1112basic_stringIcSt11char_traitsIcESaIcEEES8_EEEE17_S_select_on_copyERKSC_
000000000003c0a8 w _ZNSt20_Rb_tree_key_compareISt4lessINSt7__cxx1112basic_stringIcSt11char_traitsIcESaIcEEEEEC2ERKS7_
000000000003c0c2 w _ZNSt8_Rb_treeINSt7__cxx1112basic_stringIcSt11char_traitsIcESaIcEEESt4pairIKS5_S5_ESt10_Select1stIS8_ESt4lessIS5_ESaIS8_EE11_Alloc_nodeC1ERSE_
000000000003c0e6 w _ZNSt8_Rb_treeINSt7__cxx1112basic_stringIcSt11char_traitsIcESaIcEEESt4pairIKS5_S5_ESt10_Select1stIS8_ESt4lessIS5_ESaIS8_EE7_M_copyINSE_11_Alloc_nodeEEEPSt13_Rb_tree_nodeIS8_ERKSE_RT_
000000000003c190 w _ZNSt16allocator_traitsISaISt13_Rb_tree_nodeISt4pairIKNSt7__cxx1112basic_stringIcSt11char_traitsIcESaIcEEES7_EEEE37select_on_container_copy_constructionERKSB_
000000000003c1c0 w _ZNSt8_Rb_treeINSt7__cxx1112basic_stringIcSt11char_traitsIcESaIcEEESt4pairIKS5_S5_ESt10_Select1stIS8_ESt4lessIS5_ESaIS8_EE7_M_copyINSE_11_Alloc_nodeEEEPSt13_Rb_tree_nodeIS8_EPKSI_PSt18_Rb_tree_node_baseRT_
000000000003c32f w _ZNSt8_Rb_treeINSt7__cxx1112basic_stringIcSt11char_traitsIcESaIcEEESt4pairIKS5_S5_ESt10_Select1stIS8_ESt4lessIS5_ESaIS8_EE10_S_minimumEPSt18_Rb_tree_node_base
000000000003c34f w _ZNSt8_Rb_treeINSt7__cxx1112basic_stringIcSt11char_traitsIcESaIcEEESt4pairIKS5_S5_ESt10_Select1stIS8_ESt4lessIS5_ESaIS8_EE10_S_maximumEPSt18_Rb_tree_node_base
000000000003c370 w _ZNSt8_Rb_treeINSt7__cxx1112basic_stringIcSt11char_traitsIcESaIcEEESt4pairIKS5_S5_ESt10_Select1stIS8_ESt4lessIS5_ESaIS8_EE13_M_clone_nodeINSE_11_Alloc_nodeEEEPSt13_Rb_tree_nodeIS8_EPKSI_RT_
000000000003c3d6 w _ZNKSt8_Rb_treeINSt7__cxx1112basic_stringIcSt11char_traitsIcESaIcEEESt4pairIKS5_S5_ESt10_Select1stIS8_ESt4lessIS5_ESaIS8_EE11_Alloc_nodeclIRKS8_EEPSt13_Rb_tree_nodeIS8_EOT_
000000000003c412 w _ZSt7forwardIRKSt4pairIKNSt7__cxx1112basic_stringIcSt11char_traitsIcESaIcEEES6_EEOT_RNSt16remove_referenceISB_E4typeE
000000000003c42a w _ZNSt8_Rb_treeINSt7__cxx1112basic_stringIcSt11char_traitsIcESaIcEEESt4pairIKS5_S5_ESt10_Select1stIS8_ESt4lessIS5_ESaIS8_EE14_M_create_nodeIJRKS8_EEEPSt13_Rb_tree_nodeIS8_EDpOT_
000000000003c478 w _ZNSt8_Rb_treeINSt7__cxx1112basic_stringIcSt11char_traitsIcESaIcEEESt4pairIKS5_S5_ESt10_Select1stIS8_ESt4lessIS5_ESaIS8_EE17_M_construct_nodeIJRKS8_EEEvPSt13_Rb_tree_nodeIS8_EDpOT_
000000000003c51f w _ZNSt16allocator_traitsISaISt13_Rb_tree_nodeISt4pairIKNSt7__cxx1112basic_stringIcSt11char_traitsIcESaIcEEES7_EEEE9constructIS9_JRKS9_EEEvRSB_PT_DpOT0_
000000000003c55e w _ZNSt4pairIKNSt7__cxx1112basic_stringIcSt11char_traitsIcESaIcEEES5_EC2ERKS7_
000000000003c5c6 w _ZN9__gnu_cxx13new_allocatorISt13_Rb_tree_nodeISt4pairIKNSt7__cxx1112basic_stringIcSt11char_traitsIcESaIcEEES8_EEE9constructISA_JRKSA_EEEvPT_DpOT0_
000000000003c640 T _ZN8AcceptorC2EP9EventLoopRK11InetAddress
000000000003c7f8 T _ZN8Acceptor6listenEv
000000000003c848 T _ZN8Acceptor10handleReadEv
000000000003c988 t _Z41__static_initialization_and_destruction_0ii
000000000003c9d7 t _GLOBAL__sub_I__ZN8AcceptorC2EP9EventLoopRK11InetAddress
000000000003c9f2 w _ZN5boost9exceptionC2Ev
000000000003ca48 w _ZN5boost9exceptionD1Ev
000000000003ca7c w _ZN5boost9exceptionD0Ev
000000000003caae w _ZN5boost16exception_detail10clone_baseD2Ev
000000000003cad2 w _ZN5boost16exception_detail10clone_baseD0Ev
000000000003cb03 w _ZN5boost16exception_detail20copy_boost_exceptionEPNS_9exceptionEPKS1_
000000000003cc03 w _ZN5boost36throw_exception_assert_compatibilityERKSt9exception
000000000003cc18 w _ZN5boost17bad_function_callC1Ev
000000000003cc4e w _ZN7Channel15setReadCallbackERKN5boost8functionIFvvEEE
000000000003cc7e w _ZN7Channel13enableReadingEv
000000000003ccb6 w _ZN6SocketC1Ei
000000000003ccd8 w _ZNK6Socket2fdEv
000000000003ccf2 w _ZN9EventLoop18assertInLoopThreadEv
000000000003cd26 w _ZNK9EventLoop14isInLoopThreadEv
000000000003cd60 w _ZN5boost3_bi5list0C1Ev
000000000003cd76 w _ZN5boost8functionIFviRK11InetAddressEED2Ev
000000000003cd98 w _ZN5boost8functionIFvvEED1Ev
000000000003cdba w _ZN5boost16exception_detail12refcount_ptrINS0_20error_info_containerEEC2Ev
000000000003cdda w _ZN5boost16exception_detail12refcount_ptrINS0_20error_info_containerEED1Ev
000000000003cdfc w _ZNK5boost16exception_detail12refcount_ptrINS0_20error_info_containerEE3getEv
000000000003ce18 w _ZN5boost16exception_detail12refcount_ptrINS0_20error_info_containerEEaSERKS3_
000000000003ce4a w _ZN5boost16exception_detail10clone_baseC2ERKS1_
000000000003ce72 w _ZN5boost9exceptionC1ERKS0_
000000000003cee2 w _ZN5boost8functionIFvvEEaSERKS2_
000000000003cf52 w _ZN5boost8functionIFviRK11InetAddressEEC1Ev
000000000003cf74 w _ZN5boost9function2IviRK11InetAddressED2Ev
000000000003cf95 w _ZN5boost4bindIv8AcceptorPS1_EENS_3_bi6bind_tIT_NS_4_mfi3mf0IS5_T0_EENS3_9list_av_1IT1_E4typeEEEMS8_FS5_vESB_
000000000003d018 w _ZN5boost8functionIFvvEEC1INS_3_bi6bind_tIvNS_4_mfi3mf0Iv8AcceptorEENS4_5list1INS4_5valueIPS8_EEEEEEEET_NS_11enable_if_cIXntsrNS_11is_integralISG_EE5valueEiE4typeE
000000000003d052 w _ZN5boost9function0IvED1Ev
000000000003d074 w _ZNK5boost9function2IviRK11InetAddressEcvMNS4_5dummyEFvvEEv
000000000003d0c6 w _ZN5boost17bad_function_callD2Ev
000000000003d0f6 w _ZN5boost17bad_function_callD0Ev
000000000003d128 w _ZNK5boost9function2IviRK11InetAddressEclEiS3_
000000000003d1d0 w _ZN5boost16exception_detail12refcount_ptrINS0_20error_info_containerEE7releaseEv
000000000003d22e w _ZN5boost16exception_detail12refcount_ptrINS0_20error_info_containerEE5adoptEPS2_
000000000003d26a w _ZN5boost16exception_detail12refcount_ptrINS0_20error_info_containerEEC1ERKS3_
000000000003d29e w _ZN5boost8functionIFvvEEC2ERKS2_
000000000003d2ca w _ZN5boost9function0IvE4swapERS1_
000000000003d360 w _ZN5boost9function2IviRK11InetAddressEC2Ev
000000000003d382 w _ZN5boost9function2IviRK11InetAddressE5clearEv
000000000003d3e4 w _ZN5boost4_mfi3mf0Iv8AcceptorEC2EMS2_FvvE
000000000003d41e w _ZN5boost3_bi5valueIP8AcceptorEC1ERKS3_
000000000003d446 w _ZN5boost3_bi5list1INS0_5valueIP8AcceptorEEEC1ES5_
000000000003d472 w _ZN5boost3_bi6bind_tIvNS_4_mfi3mf0Iv8AcceptorEENS0_5list1INS0_5valueIPS4_EEEEEC2ES5_RKSA_
000000000003d4be w _ZN5boost9function0IvEC2INS_3_bi6bind_tIvNS_4_mfi3mf0Iv8AcceptorEENS3_5list1INS3_5valueIPS7_EEEEEEEET_NS_11enable_if_cIXntsrNS_11is_integralISF_EE5valueEiE4typeE
000000000003d500 w _ZN5boost9function0IvE5clearEv
000000000003d562 w _ZN5boost9function2IviRK11InetAddressE5dummy7nonnullEv
000000000003d578 w _ZN5boost17bad_function_callC1ERKS0_
000000000003d5b2 w _ZN5boost16exception_detail19error_info_injectorINS_17bad_function_callEEC2ERKS3_
000000000003d638 w _ZN5boost16exception_detail10clone_implINS0_19error_info_injectorINS_17bad_function_callEEEEC1ERKS5_
000000000003d6e3 w _ZN5boost15throw_exceptionINS_17bad_function_callEEEvRKT_
000000000003d77c w _ZNK5boost9function2IviRK11InetAddressE10get_vtableEv
000000000003d79b w _ZN5boost7forwardIRK11InetAddressEEOT_RNS_11move_detail16remove_referenceIS4_E4typeE
000000000003d7b4 w _ZN5boost16exception_detail12refcount_ptrINS0_20error_info_containerEE7add_refEv
000000000003d7f2 w _ZN5boost16exception_detail10clone_baseC1Ev
000000000003d816 w _ZN5boost9function0IvEC1ERKS1_
000000000003d84e w _ZN5boost9function0IvEC1Ev
000000000003d870 w _ZN5boost9function0IvE11move_assignERS1_
000000000003d960 w _ZNK5boost6detail8function13basic_vtable2IviRK11InetAddressE5clearERNS1_15function_bufferE
000000000003d99e w _ZN5boost3_bi8storage1INS0_5valueIP8AcceptorEEEC1ES5_
000000000003d9c2 w _ZN5boost9function0IvE9assign_toINS_3_bi6bind_tIvNS_4_mfi3mf0Iv8AcceptorEENS3_5list1INS3_5valueIPS7_EEEEEEEEvT_
000000000003da2c w _ZNK5boost9function0IvE10get_vtableEv
000000000003da4c w _ZNK5boost6detail8function13basic_vtable0IvE5clearERNS1_15function_bufferE
000000000003da8a w _ZN5boost17enable_error_infoINS_17bad_function_callEEENS_16exception_detail29enable_error_info_return_typeIT_E4typeERKS4_
000000000003daba w _ZN5boost16exception_detail19error_info_injectorINS_17bad_function_callEED2Ev
000000000003db08 w _ZThn16_N5boost16exception_detail19error_info_injectorINS_17bad_function_callEED1Ev
000000000003db0e w _ZN5boost16exception_detail19error_info_injectorINS_17bad_function_callEED0Ev
000000000003db3f w _ZThn16_N5boost16exception_detail19error_info_injectorINS_17bad_function_callEED0Ev
000000000003db45 w _ZN5boost24enable_current_exceptionINS_16exception_detail19error_info_injectorINS_17bad_function_callEEEEENS1_10clone_implIT_EERKS6_
000000000003db74 w _ZN5boost16exception_detail10clone_implINS0_19error_info_injectorINS_17bad_function_callEEEED1Ev
000000000003dbd4 w _ZThn16_N5boost16exception_detail10clone_implINS0_19error_info_injectorINS_17bad_function_callEEEED1Ev
000000000003dbda w _ZTv0_n40_N5boost16exception_detail10clone_implINS0_19error_info_injectorINS_17bad_function_callEEEED1Ev
000000000003dbe4 w _ZN5boost16exception_detail10clone_implINS0_19error_info_injectorINS_17bad_function_callEEEED0Ev
000000000003dc15 w _ZThn16_N5boost16exception_detail10clone_implINS0_19error_info_injectorINS_17bad_function_callEEEED0Ev
000000000003dc1b w _ZTv0_n40_N5boost16exception_detail10clone_implINS0_19error_info_injectorINS_17bad_function_callEEEED0Ev
000000000003dc24 w _ZN5boost9function0IvE13assign_to_ownERKS1_
000000000003dcb9 w _ZN5boost6detail8function15functor_managerINS_3_bi6bind_tIvNS_4_mfi3mf0Iv8AcceptorEENS3_5list1INS3_5valueIPS7_EEEEEEE6manageERKNS1_15function_bufferERSG_NS1_30functor_manager_operation_typeE
000000000003dd2e w _ZN5boost6detail8function26void_function_obj_invoker0INS_3_bi6bind_tIvNS_4_mfi3mf0Iv8AcceptorEENS3_5list1INS3_5valueIPS7_EEEEEEvE6invokeERNS1_15function_bufferE
000000000003dd58 w _ZNK5boost6detail8function13basic_vtable0IvE9assign_toINS_3_bi6bind_tIvNS_4_mfi3mf0Iv8AcceptorEENS5_5list1INS5_5valueIPS9_EEEEEEEEbT_RNS1_15function_bufferE
000000000003dd92 w _ZN5boost16exception_detail19error_info_injectorINS_17bad_function_callEEC2ERKS2_
000000000003ddec w _ZN5boost16exception_detail10clone_implINS0_19error_info_injectorINS_17bad_function_callEEEEC1ERKS4_
000000000003dea8 w _ZN5boost9typeindex7type_idINS_3_bi6bind_tIvNS_4_mfi3mf0Iv8AcceptorEENS2_5list1INS2_5valueIPS6_EEEEEEEENS0_14stl_type_indexEv
000000000003deb9 w _ZN5boost6detail8function15functor_managerINS_3_bi6bind_tIvNS_4_mfi3mf0Iv8AcceptorEENS3_5list1INS3_5valueIPS7_EEEEEEE7managerERKNS1_15function_bufferERSG_NS1_30functor_manager_operation_typeENS1_16function_obj_tagE
000000000003def6 w _ZN5boost3_bi6bind_tIvNS_4_mfi3mf0Iv8AcceptorEENS0_5list1INS0_5valueIPS4_EEEEEclEv
000000000003df42 w _ZNK5boost6detail8function13basic_vtable0IvE9assign_toINS_3_bi6bind_tIvNS_4_mfi3mf0Iv8AcceptorEENS5_5list1INS5_5valueIPS9_EEEEEEEEbT_RNS1_15function_bufferENS1_16function_obj_tagE
000000000003dfc4 w _ZN5boost9typeindex14stl_type_index7type_idINS_3_bi6bind_tIvNS_4_mfi3mf0Iv8AcceptorEENS3_5list1INS3_5valueIPS7_EEEEEEEES1_v
000000000003dfeb w _ZN5boost6detail8function15functor_managerINS_3_bi6bind_tIvNS_4_mfi3mf0Iv8AcceptorEENS3_5list1INS3_5valueIPS7_EEEEEEE7managerERKNS1_15function_bufferERSG_NS1_30functor_manager_operation_typeEN4mpl_5bool_ILb1EEE
000000000003e01e w _ZN5boost3_bi5list1INS0_5valueIP8AcceptorEEEclINS_4_mfi3mf0IvS3_EENS0_5list0EEEvNS0_4typeIvEERT_RT0_i
000000000003e07a w _ZNK5boost6detail8function13basic_vtable0IvE14assign_functorINS_3_bi6bind_tIvNS_4_mfi3mf0Iv8AcceptorEENS5_5list1INS5_5valueIPS9_EEEEEEEEvT_RNS1_15function_bufferEN4mpl_5bool_ILb1EEE
000000000003e0c3 w _ZN5boost6detail8function22functor_manager_commonINS_3_bi6bind_tIvNS_4_mfi3mf0Iv8AcceptorEENS3_5list1INS3_5valueIPS7_EEEEEEE12manage_smallERKNS1_15function_bufferERSG_NS1_30functor_manager_operation_typeE
000000000003e1c2 w _ZN5boost3_bi9unwrapperINS_4_mfi3mf0Iv8AcceptorEEE6unwrapERS5_l
000000000003e1de w _ZNK5boost3_bi5list0ixIP8AcceptorEERT_RNS0_5valueIS5_EE
000000000003e202 w _ZNK5boost4_mfi3mf0Iv8AcceptorEclEPS2_
000000000003e270 w _ZN5boost3_bi5valueIP8AcceptorE3getEv
000000000003e288 w _ZNK5boost16exception_detail10clone_implINS0_19error_info_injectorINS_17bad_function_callEEEE5cloneEv
000000000003e307 w _ZTv0_n24_NK5boost16exception_detail10clone_implINS0_19error_info_injectorINS_17bad_function_callEEEE5cloneEv
000000000003e314 w _ZNK5boost16exception_detail10clone_implINS0_19error_info_injectorINS_17bad_function_callEEEE7rethrowEv
000000000003e371 w _ZTv0_n32_NK5boost16exception_detail10clone_implINS0_19error_info_injectorINS_17bad_function_callEEEE7rethrowEv
000000000003e37a w _ZN5boost16exception_detail10clone_implINS0_19error_info_injectorINS_17bad_function_callEEEEC1ERKS5_NS5_9clone_tagE
000000000003e436 T _ZN7ChannelC1EP9EventLoopi
000000000003e520 T _ZN7ChannelD1Ev
000000000003e5a4 T _ZN7Channel6updateEv
000000000003e5d0 T _ZN7Channel11handleEventEv
000000000003e775 t _Z41__static_initialization_and_destruction_0ii
000000000003e7c4 t _GLOBAL__sub_I__ZN7Channel10kNoneEventE
000000000003e7e0 w _ZN5boost8functionIFvvEEC2Ev
000000000003e802 w _ZNK5boost9function0IvEcvMNS1_5dummyEFvvEEv
000000000003e854 w _ZNK5boost9function0IvEclEv
000000000003e8d0 w _ZN5boost9function0IvE5dummy7nonnullEv
000000000003e8e6 t _ZL18__gthread_active_pv
000000000003e90b t _ZL20__gthread_mutex_lockP15pthread_mutex_t
000000000003e940 t _ZL13createEventfdv
000000000003e99e T _ZN9EventLoopC1Ev
000000000003ebbc T _ZN9EventLoopD2Ev
000000000003ec4c T _ZN9EventLoop4loopEv
000000000003ee0c T _ZN9EventLoop4quitEv
000000000003ee2a T _ZN9EventLoop13updateChannelEP7Channel
000000000003eea2 T _ZN9EventLoop20abortNotInLoopThreadEv
000000000003eefc T _ZN9EventLoop9runInLoopERKN5boost8functionIFvvEEE
000000000003ef46 T _ZN9EventLoop11queueInLoopERKN5boost8functionIFvvEEE
000000000003efda T _ZN9EventLoop6wakeupEv
000000000003f064 T _ZN9EventLoop10handleReadEv
000000000003f0ee T _ZN9EventLoop17doPendingFunctorsEv
000000000003f1c0 T _ZN9EventLoop13removeChannelEP7Channel
000000000003f238 t _Z41__static_initialization_and_destruction_0ii
000000000003f287 t _GLOBAL__sub_I_t_looInThisThread
000000000003f2a2 w _ZNSt5mutex4lockEv
000000000003f2d6 w _ZN7Channel9ownerLoopEv
000000000003f2f2 w _ZNSt12__mutex_baseC1Ev
000000000003f332 w _ZNSt5mutexC1Ev
000000000003f354 w _ZNSt6vectorIN5boost8functionIFvvEEESaIS3_EEC1Ev
000000000003f376 w _ZNSt6vectorIN5boost8functionIFvvEEESaIS3_EED2Ev
000000000003f3c0 w _ZN5boost10scoped_ptrI7ChannelEC2EPS1_
000000000003f3e4 w _ZN5boost10scoped_ptrI7ChannelED1Ev
000000000003f408 w _ZN5boost10scoped_ptrI6PollerEC2EPS1_
000000000003f42c w _ZN5boost10scoped_ptrI6PollerED1Ev
000000000003f450 w _ZNSt6vectorIP7ChannelSaIS1_EEC1Ev
000000000003f472 w _ZNSt6vectorIP7ChannelSaIS1_EED2Ev
000000000003f4bc w _ZNSt6vectorIP7ChannelSaIS1_EE5clearEv
000000000003f4e8 w _ZNK5boost10scoped_ptrI6PollerEptEv
000000000003f52e w _ZNSt6vectorIP7ChannelSaIS1_EE5beginEv
000000000003f55a w _ZNSt6vectorIP7ChannelSaIS1_EE3endEv
000000000003f589 w _ZN9__gnu_cxxneIPP7ChannelSt6vectorIS2_SaIS2_EEEEbRKNS_17__normal_iteratorIT_T0_EESC_
000000000003f5cc w _ZN9__gnu_cxx17__normal_iteratorIPP7ChannelSt6vectorIS2_SaIS2_EEEppEv
000000000003f5f6 w _ZNK9__gnu_cxx17__normal_iteratorIPP7ChannelSt6vectorIS2_SaIS2_EEEdeEv
000000000003f612 w _ZNSt6vectorIN5boost8functionIFvvEEESaIS3_EE9push_backERKS3_
000000000003f694 w _ZNSt6vectorIN5boost8functionIFvvEEESaIS3_EE4swapERS5_
000000000003f6ec w _ZNKSt6vectorIN5boost8functionIFvvEEESaIS3_EE4sizeEv
000000000003f71c w _ZNSt6vectorIN5boost8functionIFvvEEESaIS3_EEixEm
000000000003f746 w _ZNSt12_Vector_baseIN5boost8functionIFvvEEESaIS3_EE12_Vector_implD2Ev
000000000003f768 w _ZNSt12_Vector_baseIN5boost8functionIFvvEEESaIS3_EEC2Ev
000000000003f78a w _ZNSt12_Vector_baseIN5boost8functionIFvvEEESaIS3_EED2Ev
000000000003f7e0 w _ZNSt12_Vector_baseIN5boost8functionIFvvEEESaIS3_EE19_M_get_Tp_allocatorEv
000000000003f7f8 w _ZSt8_DestroyIPN5boost8functionIFvvEEES3_EvT_S5_RSaIT0_E
000000000003f828 w _ZN5boost14checked_deleteI7ChannelEEvPT_
000000000003f861 w _ZN5boost14checked_deleteI6PollerEEvPT_
000000000003f89a w _ZNSt12_Vector_baseIP7ChannelSaIS1_EE12_Vector_implD2Ev
000000000003f8bc w _ZNSt12_Vector_baseIP7ChannelSaIS1_EEC2Ev
000000000003f8de w _ZNSt12_Vector_baseIP7ChannelSaIS1_EED2Ev
000000000003f934 w _ZNSt12_Vector_baseIP7ChannelSaIS1_EE19_M_get_Tp_allocatorEv
000000000003f94c w _ZSt8_DestroyIPP7ChannelS1_EvT_S3_RSaIT0_E
000000000003f97c w _ZNSt6vectorIP7ChannelSaIS1_EE15_M_erase_at_endEPS1_
000000000003f9c8 w _ZN9__gnu_cxx17__normal_iteratorIPP7ChannelSt6vectorIS2_SaIS2_EEEC1ERKS3_
000000000003f9f0 w _ZNK9__gnu_cxx17__normal_iteratorIPP7ChannelSt6vectorIS2_SaIS2_EEE4baseEv
000000000003fa08 w _ZNSt16allocator_traitsISaIN5boost8functionIFvvEEEEE9constructIS3_JRKS3_EEEvRS4_PT_DpOT0_
000000000003fa48 w _ZNSt6vectorIN5boost8functionIFvvEEESaIS3_EE3endEv
000000000003fa78 w _ZNSt6vectorIN5boost8functionIFvvEEESaIS3_EE17_M_realloc_insertIJRKS3_EEEvN9__gnu_cxx17__normal_iteratorIPS3_S5_EEDpOT_
000000000003fcd0 w _ZNSt12_Vector_baseIN5boost8functionIFvvEEESaIS3_EE12_Vector_impl12_M_swap_dataERS6_
000000000003fd32 w _ZN9__gnu_cxx14__alloc_traitsISaIN5boost8functionIFvvEEEEE10_S_on_swapERS5_S7_
000000000003fd5e w _ZNSt12_Vector_baseIN5boost8functionIFvvEEESaIS3_EE12_Vector_implC2Ev
000000000003fda2 w _ZNSaIN5boost8functionIFvvEEEED1Ev
000000000003fdc4 w _ZNSt12_Vector_baseIN5boost8functionIFvvEEESaIS3_EE13_M_deallocateEPS3_m
000000000003fdff w _ZSt8_DestroyIPN5boost8functionIFvvEEEEvT_S5_
000000000003fe2c w _ZNSt12_Vector_baseIP7ChannelSaIS1_EE12_Vector_implC1Ev
000000000003fe70 w _ZNSaIP7ChannelED1Ev
000000000003fe92 w _ZNSt12_Vector_baseIP7ChannelSaIS1_EE13_M_deallocateEPS1_m
000000000003fecd w _ZSt8_DestroyIPP7ChannelEvT_S3_
000000000003fef9 w _ZSt7forwardIRKN5boost8functionIFvvEEEEOT_RNSt16remove_referenceIS6_E4typeE
000000000003ff12 w _ZN9__gnu_cxx13new_allocatorIN5boost8functionIFvvEEEE9constructIS4_JRKS4_EEEvPT_DpOT0_
000000000003ff8c w _ZN9__gnu_cxx17__normal_iteratorIPN5boost8functionIFvvEEESt6vectorIS4_SaIS4_EEEC2ERKS5_
000000000003ffb4 w _ZNKSt6vectorIN5boost8functionIFvvEEESaIS3_EE12_M_check_lenEmPKc
0000000000040084 w _ZNSt6vectorIN5boost8functionIFvvEEESaIS3_EE5beginEv
00000000000400af w _ZN9__gnu_cxxmiIPN5boost8functionIFvvEEESt6vectorIS4_SaIS4_EEEENS_17__normal_iteratorIT_T0_E15difference_typeERKSC_SF_
00000000000400f8 w _ZNSt12_Vector_baseIN5boost8functionIFvvEEESaIS3_EE11_M_allocateEm
0000000000040132 w _ZNK9__gnu_cxx17__normal_iteratorIPN5boost8functionIFvvEEESt6vectorIS4_SaIS4_EEE4baseEv
000000000004014a w _ZSt34__uninitialized_move_if_noexcept_aIPN5boost8functionIFvvEEES4_SaIS3_EET0_T_S7_S6_RT1_
00000000000401a4 w _ZNSt16allocator_traitsISaIN5boost8functionIFvvEEEEE7destroyIS3_EEvRS4_PT_
00000000000401d0 w _ZSt4moveIRPN5boost8functionIFvvEEEEONSt16remove_referenceIT_E4typeEOS7_
00000000000401e8 w _ZSt4swapIPN5boost8functionIFvvEEEENSt9enable_ifIXsrSt6__and_IJSt6__not_ISt15__is_tuple_likeIT_EESt21is_move_constructibleIS9_ESt18is_move_assignableIS9_EEE5valueEvE4typeERS9_SJ_
0000000000040240 w _ZSt15__alloc_on_swapISaIN5boost8functionIFvvEEEEEvRT_S6_
0000000000040276 w _ZNSaIN5boost8functionIFvvEEEEC1Ev
0000000000040298 w _ZN9__gnu_cxx13new_allocatorIN5boost8functionIFvvEEEED2Ev
00000000000402ad w _ZNSt16allocator_traitsISaIN5boost8functionIFvvEEEEE10deallocateERS4_PS3_m
00000000000402e1 w _ZNSt12_Destroy_auxILb0EE9__destroyIPN5boost8functionIFvvEEEEEvT_S7_
0000000000040320 w _ZNSaIP7ChannelEC2Ev
0000000000040342 w _ZN9__gnu_cxx13new_allocatorIP7ChannelED1Ev
0000000000040357 w _ZNSt16allocator_traitsISaIP7ChannelEE10deallocateERS2_PS1_m
000000000004038b w _ZNSt12_Destroy_auxILb1EE9__destroyIPP7ChannelEEvT_S5_
00000000000403a4 w _ZNKSt6vectorIN5boost8functionIFvvEEESaIS3_EE8max_sizeEv
00000000000403cc w _ZNSt16allocator_traitsISaIN5boost8functionIFvvEEEEE8allocateERS4_m
00000000000403fc w _ZSt32__make_move_if_noexcept_iteratorIN5boost8functionIFvvEEEPKS3_ET0_PT_
0000000000040414 w _ZSt22__uninitialized_copy_aIPKN5boost8functionIFvvEEEPS3_S3_ET0_T_S8_S7_RSaIT1_E
000000000004044c w _ZN9__gnu_cxx13new_allocatorIN5boost8functionIFvvEEEE7destroyIS4_EEvPT_
0000000000040471 w _ZSt18__do_alloc_on_swapISaIN5boost8functionIFvvEEEEEvRT_S6_St17integral_constantIbLb0EE
000000000004048a w _ZN9__gnu_cxx13new_allocatorIN5boost8functionIFvvEEEEC1Ev
00000000000404a0 w _ZN9__gnu_cxx13new_allocatorIN5boost8functionIFvvEEEE10deallocateEPS4_m
00000000000404c9 w _ZSt11__addressofIN5boost8functionIFvvEEEEPT_RS4_
00000000000404e1 w _ZSt8_DestroyIN5boost8functionIFvvEEEEvPT_
0000000000040502 w _ZN9__gnu_cxx13new_allocatorIP7ChannelEC2Ev
0000000000040518 w _ZN9__gnu_cxx13new_allocatorIP7ChannelE10deallocateEPS2_m
0000000000040541 w _ZNSt16allocator_traitsISaIN5boost8functionIFvvEEEEE8max_sizeERKS4_
0000000000040562 w _ZNKSt12_Vector_baseIN5boost8functionIFvvEEESaIS3_EE19_M_get_Tp_allocatorEv
000000000004057a w _ZN9__gnu_cxx13new_allocatorIN5boost8functionIFvvEEEE8allocateEmPKv
00000000000405c2 w _ZSt18uninitialized_copyIPKN5boost8functionIFvvEEEPS3_ET0_T_S8_S7_
00000000000405fa w _ZNK9__gnu_cxx13new_allocatorIN5boost8functionIFvvEEEE8max_sizeEv
0000000000040618 w _ZNSt20__uninitialized_copyILb0EE13__uninit_copyIPKN5boost8functionIFvvEEEPS5_EET0_T_SA_S9_
00000000000406af w _ZSt10_ConstructIN5boost8functionIFvvEEEJRKS3_EEvPT_DpOT0_
0000000000040724 T _ZN11InetAddressC2Et
0000000000040782 T _ZN11InetAddressC1ERKNSt7__cxx1112basic_stringIcSt11char_traitsIcESaIcEEEt
00000000000407de T _ZNK11InetAddress10toHostPortB5cxx11Ev
0000000000040860 w _ZN7sockets15hostToNetwork32Ej
000000000004087d w _ZN7sockets15hostToNetwork16Et
000000000004089e T _ZN6PollerC1EP9EventLoop
00000000000408e2 T _ZN6PollerD1Ev
0000000000040918 T _ZN6Poller4pollEiPSt6vectorIP7ChannelSaIS2_EE
0000000000040a20 T _ZN6Poller17fillActiveChannelEiPSt6vectorIP7ChannelSaIS2_EE
0000000000040c02 T _ZN6Poller13updateChannelEP7Channel
0000000000040f64 T _ZN6Poller13removeChannelEP7Channel
00000000000412b1 t _Z41__static_initialization_and_destruction_0ii
0000000000041300 t _GLOBAL__sub_I__ZN6PollerC2EP9EventLoop
000000000004131c w _ZN6Poller18assertInLoopThreadEv
0000000000041340 w _ZNK7Channel2fdEv
000000000004135c w _ZNK7Channel6eventsEv
0000000000041378 w _ZN7Channel11set_reventsEi
000000000004139a w _ZNK7Channel11isNoneEventEv
00000000000413c0 w _ZN7Channel5indexEv
00000000000413dc w _ZN7Channel9set_indexEi
00000000000413fe w _ZNSt8_Rb_treeIiSt4pairIKiP7ChannelESt10_Select1stIS4_ESt4lessIiESaIS4_EE13_Rb_tree_implIS8_Lb1EEC2Ev
000000000004143c w _ZNSt8_Rb_treeIiSt4pairIKiP7ChannelESt10_Select1stIS4_ESt4lessIiESaIS4_EE13_Rb_tree_implIS8_Lb1EED2Ev
000000000004145e w _ZNSt8_Rb_treeIiSt4pairIKiP7ChannelESt10_Select1stIS4_ESt4lessIiESaIS4_EEC2Ev
0000000000041480 w _ZNSt3mapIiP7ChannelSt4lessIiESaISt4pairIKiS1_EEEC1Ev
00000000000414a2 w _ZNSt3mapIiP7ChannelSt4lessIiESaISt4pairIKiS1_EEED2Ev
00000000000414c4 w _ZNSt6vectorI6pollfdSaIS0_EEC1Ev
00000000000414e6 w _ZNSt6vectorI6pollfdSaIS0_EED2Ev
0000000000041530 w _ZNSaISt13_Rb_tree_nodeISt4pairIKiP7ChannelEEEC2Ev
0000000000041552 w _ZNSaISt13_Rb_tree_nodeISt4pairIKiP7ChannelEEED1Ev
0000000000041574 w _ZNSt20_Rb_tree_key_compareISt4lessIiEEC1Ev
000000000004158a w _ZNSt8_Rb_treeIiSt4pairIKiP7ChannelESt10_Select1stIS4_ESt4lessIiESaIS4_EED2Ev
00000000000415ca w _ZNSt6vectorI6pollfdSaIS0_EE5beginEv
00000000000415f6 w _ZNK9__gnu_cxx17__normal_iteratorIP6pollfdSt6vectorIS1_SaIS1_EEEdeEv
0000000000041612 w _ZNKSt6vectorI6pollfdSaIS0_EE4sizeEv
0000000000041642 w _ZN9__gnu_cxx17__normal_iteratorIPK6pollfdSt6vectorIS1_SaIS1_EEEC2IPS1_EERKNS0_IT_NS_11__enable_ifIXsrSt10__are_sameISA_S9_E7__valueES6_E6__typeEEE
0000000000041672 w _ZNSt6vectorI6pollfdSaIS0_EE3endEv
00000000000416a1 w _ZN9__gnu_cxxneIPK6pollfdPS1_St6vectorIS1_SaIS1_EEEEbRKNS_17__normal_iteratorIT_T1_EERKNS8_IT0_SA_EE
00000000000416e4 w _ZN9__gnu_cxx17__normal_iteratorIPK6pollfdSt6vectorIS1_SaIS1_EEEppEv
000000000004170e w _ZNK9__gnu_cxx17__normal_iteratorIPK6pollfdSt6vectorIS1_SaIS1_EEEptEv
000000000004172a w _ZNSt3mapIiP7ChannelSt4lessIiESaISt4pairIKiS1_EEE4findERS5_
0000000000041756 w _ZNSt23_Rb_tree_const_iteratorISt4pairIKiP7ChannelEEC1ERKSt17_Rb_tree_iteratorIS4_E
000000000004177e w _ZNSt3mapIiP7ChannelSt4lessIiESaISt4pairIKiS1_EEE3endEv
000000000004179e w _ZNKSt23_Rb_tree_const_iteratorISt4pairIKiP7ChannelEEneERKS5_
00000000000417ca w _ZNKSt23_Rb_tree_const_iteratorISt4pairIKiP7ChannelEEptEv
00000000000417ee w _ZNSt6vectorIP7ChannelSaIS1_EE9push_backERKS1_
0000000000041870 w _ZNKSt17_Rb_tree_iteratorISt4pairIKiP7ChannelEEeqERKS5_
000000000004189c w _ZNSt6vectorI6pollfdSaIS0_EE9push_backERKS0_
000000000004191e w _ZNSt3mapIiP7ChannelSt4lessIiESaISt4pairIKiS1_EEEixERS5_
0000000000041a1e w _ZNKSt17_Rb_tree_iteratorISt4pairIKiP7ChannelEEneERKS5_
0000000000041a4a w _ZNSt3mapIiP7ChannelSt4lessIiESaISt4pairIKiS1_EEEixEOi
0000000000041b56 w _ZNSt6vectorI6pollfdSaIS0_EEixEm
0000000000041b80 w _ZNSt3mapIiP7ChannelSt4lessIiESaISt4pairIKiS1_EEE5eraseERS5_
0000000000041bab w _ZN5boost13implicit_castImEET_NS_6detail14icast_identityIS1_E4typeE
0000000000041bc4 w _ZNSt6vectorI6pollfdSaIS0_EE8pop_backEv
0000000000041c04 w _ZNSt6vectorI6pollfdSaIS0_EE4backEv
0000000000041c4a w _ZNK9__gnu_cxx17__normal_iteratorIP6pollfdSt6vectorIS1_SaIS1_EEEplEl
0000000000041c90 w _ZNK9__gnu_cxx17__normal_iteratorIP6pollfdSt6vectorIS1_SaIS1_EEEmiEl
0000000000041cd8 w _ZSt9iter_swapIN9__gnu_cxx17__normal_iteratorIP6pollfdSt6vectorIS2_SaIS2_EEEES7_EvT_T0_
0000000000041d1e w _ZNSt12_Vector_baseI6pollfdSaIS0_EE12_Vector_implD2Ev
0000000000041d40 w _ZNSt12_Vector_baseI6pollfdSaIS0_EEC1Ev
0000000000041d62 w _ZNSt12_Vector_baseI6pollfdSaIS0_EED1Ev
0000000000041db8 w _ZNSt12_Vector_baseI6pollfdSaIS0_EE19_M_get_Tp_allocatorEv
0000000000041dd0 w _ZSt8_DestroyIP6pollfdS0_EvT_S2_RSaIT0_E
0000000000041e00 w _ZN9__gnu_cxx13new_allocatorISt13_Rb_tree_nodeISt4pairIKiP7ChannelEEEC1Ev
0000000000041e16 w _ZN9__gnu_cxx13new_allocatorISt13_Rb_tree_nodeISt4pairIKiP7ChannelEEED1Ev
0000000000041e2c w _ZNSt8_Rb_treeIiSt4pairIKiP7ChannelESt10_Select1stIS4_ESt4lessIiESaIS4_EE8_M_eraseEPSt13_Rb_tree_nodeIS4_E
0000000000041e98 w _ZNSt8_Rb_treeIiSt4pairIKiP7ChannelESt10_Select1stIS4_ESt4lessIiESaIS4_EE8_M_beginEv
0000000000041eb4 w _ZN9__gnu_cxx17__normal_iteratorIP6pollfdSt6vectorIS1_SaIS1_EEEC1ERKS2_
0000000000041edc w _ZNK9__gnu_cxx17__normal_iteratorIP6pollfdSt6vectorIS1_SaIS1_EEE4baseEv
0000000000041ef4 w _ZNK9__gnu_cxx17__normal_iteratorIPK6pollfdSt6vectorIS1_SaIS1_EEE4baseEv
0000000000041f0c w _ZNSt8_Rb_treeIiSt4pairIKiP7ChannelESt10_Select1stIS4_ESt4lessIiESaIS4_EE4findERS1_
0000000000041fc2 w _ZNSt8_Rb_treeIiSt4pairIKiP7ChannelESt10_Select1stIS4_ESt4lessIiESaIS4_EE3endEv
0000000000041ff2 w _ZNKSt13_Rb_tree_nodeISt4pairIKiP7ChannelEE9_M_valptrEv
0000000000042016 w _ZNSt16allocator_traitsISaIP7ChannelEE9constructIS1_JRKS1_EEEvRS2_PT_DpOT0_
0000000000042056 w _ZNSt6vectorIP7ChannelSaIS1_EE17_M_realloc_insertIJRKS1_EEEvN9__gnu_cxx17__normal_iteratorIPS1_S3_EEDpOT_
00000000000422b0 w _ZNSt16allocator_traitsISaI6pollfdEE9constructIS0_JRKS0_EEEvRS1_PT_DpOT0_
00000000000422f0 w _ZNSt6vectorI6pollfdSaIS0_EE17_M_realloc_insertIJRKS0_EEEvN9__gnu_cxx17__normal_iteratorIPS0_S2_EEDpOT_
000000000004254a w _ZNSt3mapIiP7ChannelSt4lessIiESaISt4pairIKiS1_EEE11lower_boundERS5_
0000000000042576 w _ZNKSt3mapIiP7ChannelSt4lessIiESaISt4pairIKiS1_EEE8key_compEv
000000000004259e w _ZNKSt17_Rb_tree_iteratorISt4pairIKiP7ChannelEEdeEv
00000000000425c2 w _ZNKSt4lessIiEclERKiS2_
00000000000425f0 w _ZNSt5tupleIJRKiEEC1IvLb1EEES1_
000000000004261c w _ZNSt8_Rb_treeIiSt4pairIKiP7ChannelESt10_Select1stIS4_ESt4lessIiESaIS4_EE22_M_emplace_hint_uniqueIJRKSt21piecewise_construct_tSt5tupleIJRS1_EESF_IJEEEEESt17_Rb_tree_iteratorIS4_ESt23_Rb_tree_const_iteratorIS4_EDpOT_
0000000000042739 w _ZSt4moveIRiEONSt16remove_referenceIT_E4typeEOS2_
0000000000042752 w _ZNSt5tupleIJOiEEC2EOS1_
000000000004277e w _ZSt16forward_as_tupleIJiEESt5tupleIJDpOT_EES3_
00000000000427b8 w _ZNSt8_Rb_treeIiSt4pairIKiP7ChannelESt10_Select1stIS4_ESt4lessIiESaIS4_EE22_M_emplace_hint_uniqueIJRKSt21piecewise_construct_tSt5tupleIJOiEESF_IJEEEEESt17_Rb_tree_iteratorIS4_ESt23_Rb_tree_const_iteratorIS4_EDpOT_
00000000000428d6 w _ZNSt8_Rb_treeIiSt4pairIKiP7ChannelESt10_Select1stIS4_ESt4lessIiESaIS4_EE5eraseERS1_
0000000000042970 w _ZNSt16allocator_traitsISaI6pollfdEE7destroyIS0_EEvRS1_PT_
000000000004299c w _ZSt4moveIR6pollfdEONSt16remove_referenceIT_E4typeEOS3_
00000000000429b4 w _ZSt4swapI6pollfdENSt9enable_ifIXsrSt6__and_IJSt6__not_ISt15__is_tuple_likeIT_EESt21is_move_constructibleIS5_ESt18is_move_assignableIS5_EEE5valueEvE4typeERS5_SF_
0000000000042a12 w _ZNSt12_Vector_baseI6pollfdSaIS0_EE12_Vector_implC2Ev
0000000000042a56 w _ZNSaI6pollfdED1Ev
0000000000042a78 w _ZNSt12_Vector_baseI6pollfdSaIS0_EE13_M_deallocateEPS0_m
0000000000042ab3 w _ZSt8_DestroyIP6pollfdEvT_S2_
0000000000042adf w _ZNSt8_Rb_treeIiSt4pairIKiP7ChannelESt10_Select1stIS4_ESt4lessIiESaIS4_EE8_S_rightEPSt18_Rb_tree_node_base
0000000000042afb w _ZNSt8_Rb_treeIiSt4pairIKiP7ChannelESt10_Select1stIS4_ESt4lessIiESaIS4_EE7_S_leftEPSt18_Rb_tree_node_base
0000000000042b18 w _ZNSt8_Rb_treeIiSt4pairIKiP7ChannelESt10_Select1stIS4_ESt4lessIiESaIS4_EE12_M_drop_nodeEPSt13_Rb_tree_nodeIS4_E
0000000000042b58 w _ZNSt8_Rb_treeIiSt4pairIKiP7ChannelESt10_Select1stIS4_ESt4lessIiESaIS4_EE6_M_endEv
0000000000042b74 w _ZNSt8_Rb_treeIiSt4pairIKiP7ChannelESt10_Select1stIS4_ESt4lessIiESaIS4_EE14_M_lower_boundEPSt13_Rb_tree_nodeIS4_EPSt18_Rb_tree_node_baseRS1_
0000000000042c10 w _ZNSt8_Rb_treeIiSt4pairIKiP7ChannelESt10_Select1stIS4_ESt4lessIiESaIS4_EE6_S_keyEPKSt18_Rb_tree_node_base
0000000000042c42 w _ZNSt17_Rb_tree_iteratorISt4pairIKiP7ChannelEEC1EPSt18_Rb_tree_node_base
0000000000042c66 w _ZNK9__gnu_cxx16__aligned_membufISt4pairIKiP7ChannelEE6_M_ptrEv
0000000000042c86 w _ZSt7forwardIRKP7ChannelEOT_RNSt16remove_referenceIS4_E4typeE
0000000000042c9e w _ZN9__gnu_cxx13new_allocatorIP7ChannelE9constructIS2_JRKS2_EEEvPT_DpOT0_
0000000000042cea w _ZNKSt6vectorIP7ChannelSaIS1_EE12_M_check_lenEmPKc
0000000000042db9 w _ZN9__gnu_cxxmiIPP7ChannelSt6vectorIS2_SaIS2_EEEENS_17__normal_iteratorIT_T0_E15difference_typeERKSA_SD_
0000000000042e02 w _ZNSt12_Vector_baseIP7ChannelSaIS1_EE11_M_allocateEm
0000000000042e3b w _ZSt34__uninitialized_move_if_noexcept_aIPP7ChannelS2_SaIS1_EET0_T_S5_S4_RT1_
0000000000042e95 w _ZNSt16allocator_traitsISaIP7ChannelEE7destroyIS1_EEvRS2_PT_
0000000000042ec1 w _ZSt7forwardIRK6pollfdEOT_RNSt16remove_referenceIS3_E4typeE
0000000000042eda w _ZN9__gnu_cxx13new_allocatorI6pollfdE9constructIS1_JRKS1_EEEvPT_DpOT0_
0000000000042f28 w _ZNKSt6vectorI6pollfdSaIS0_EE12_M_check_lenEmPKc
0000000000042ff7 w _ZN9__gnu_cxxmiIP6pollfdSt6vectorIS1_SaIS1_EEEENS_17__normal_iteratorIT_T0_E15difference_typeERKS9_SC_
0000000000043040 w _ZNSt12_Vector_baseI6pollfdSaIS0_EE11_M_allocateEm
0000000000043079 w _ZSt34__uninitialized_move_if_noexcept_aIP6pollfdS1_SaIS0_EET0_T_S4_S3_RT1_
00000000000430d4 w _ZNSt8_Rb_treeIiSt4pairIKiP7ChannelESt10_Select1stIS4_ESt4lessIiESaIS4_EE11lower_boundERS1_
0000000000043126 w _ZNKSt8_Rb_treeIiSt4pairIKiP7ChannelESt10_Select1stIS4_ESt4lessIiESaIS4_EE8key_compEv
000000000004313a w _ZNSt13_Rb_tree_nodeISt4pairIKiP7ChannelEE9_M_valptrEv
000000000004315e w _ZNSt11_Tuple_implILm0EJRKiEEC1ES1_
000000000004318a w _ZSt7forwardISt5tupleIJRKiEEEOT_RNSt16remove_referenceIS4_E4typeE
00000000000431a2 w _ZNSt8_Rb_treeIiSt4pairIKiP7ChannelESt10_Select1stIS4_ESt4lessIiESaIS4_EE14_M_create_nodeIJRKSt21piecewise_construct_tSt5tupleIJRS1_EESF_IJEEEEEPSt13_Rb_tree_nodeIS4_EDpOT_
0000000000043224 w _ZNSt8_Rb_treeIiSt4pairIKiP7ChannelESt10_Select1stIS4_ESt4lessIiESaIS4_EE29_M_get_insert_hint_unique_posESt23_Rb_tree_const_iteratorIS4_ERS1_
000000000004367c w _ZNSt8_Rb_treeIiSt4pairIKiP7ChannelESt10_Select1stIS4_ESt4lessIiESaIS4_EE6_S_keyEPKSt13_Rb_tree_nodeIS4_E
00000000000436ae w _ZNSt8_Rb_treeIiSt4pairIKiP7ChannelESt10_Select1stIS4_ESt4lessIiESaIS4_EE14_M_insert_nodeEPSt18_Rb_tree_node_baseSC_PSt13_Rb_tree_nodeIS4_E
0000000000043778 w _ZNSt5tupleIJOiEEC2IJiELb1EEEDpOT_
00000000000437b2 w _ZNSt11_Tuple_implILm0EJOiEEC1EOS1_
00000000000437f4 w _ZSt7forwardISt5tupleIJOiEEEOT_RNSt16remove_referenceIS3_E4typeE
000000000004380c w _ZNSt8_Rb_treeIiSt4pairIKiP7ChannelESt10_Select1stIS4_ESt4lessIiESaIS4_EE14_M_create_nodeIJRKSt21piecewise_construct_tSt5tupleIJOiEESF_IJEEEEEPSt13_Rb_tree_nodeIS4_EDpOT_
000000000004388e w _ZNSt8_Rb_treeIiSt4pairIKiP7ChannelESt10_Select1stIS4_ESt4lessIiESaIS4_EE11equal_rangeERS1_
0000000000043a2c w _ZNKSt8_Rb_treeIiSt4pairIKiP7ChannelESt10_Select1stIS4_ESt4lessIiESaIS4_EE4sizeEv
0000000000043a48 w _ZNSt8_Rb_treeIiSt4pairIKiP7ChannelESt10_Select1stIS4_ESt4lessIiESaIS4_EE12_M_erase_auxESt23_Rb_tree_const_iteratorIS4_ESC_
0000000000043b34 w _ZN9__gnu_cxx13new_allocatorI6pollfdE7destroyIS1_EEvPT_
0000000000043b4e w _ZNSaI6pollfdEC1Ev
0000000000043b70 w _ZN9__gnu_cxx13new_allocatorI6pollfdED1Ev
0000000000043b85 w _ZNSt16allocator_traitsISaI6pollfdEE10deallocateERS1_PS0_m
0000000000043bb9 w _ZNSt12_Destroy_auxILb1EE9__destroyIP6pollfdEEvT_S4_
0000000000043bd2 w _ZNSt8_Rb_treeIiSt4pairIKiP7ChannelESt10_Select1stIS4_ESt4lessIiESaIS4_EE15_M_destroy_nodeEPSt13_Rb_tree_nodeIS4_E
0000000000043c18 w _ZNSt8_Rb_treeIiSt4pairIKiP7ChannelESt10_Select1stIS4_ESt4lessIiESaIS4_EE11_M_put_nodeEPSt13_Rb_tree_nodeIS4_E
0000000000043c54 w _ZNSt8_Rb_treeIiSt4pairIKiP7ChannelESt10_Select1stIS4_ESt4lessIiESaIS4_EE8_S_valueEPKSt18_Rb_tree_node_base
0000000000043c74 w _ZNKSt10_Select1stISt4pairIKiP7ChannelEEclERKS4_
0000000000043c90 w _ZNK9__gnu_cxx16__aligned_membufISt4pairIKiP7ChannelEE7_M_addrEv
0000000000043ca8 w _ZNKSt6vectorIP7ChannelSaIS1_EE8max_sizeEv
0000000000043cd0 w _ZNKSt6vectorIP7ChannelSaIS1_EE4sizeEv
0000000000043d00 w _ZNSt16allocator_traitsISaIP7ChannelEE8allocateERS2_m
0000000000043d30 w _ZSt32__make_move_if_noexcept_iteratorIP7ChannelSt13move_iteratorIPS1_EET0_PT_
0000000000043d5b w _ZSt22__uninitialized_copy_aISt13move_iteratorIPP7ChannelES3_S2_ET0_T_S6_S5_RSaIT1_E
0000000000043d92 w _ZN9__gnu_cxx13new_allocatorIP7ChannelE7destroyIS2_EEvPT_
0000000000043dac w _ZNKSt6vectorI6pollfdSaIS0_EE8max_sizeEv
0000000000043dd4 w _ZNSt16allocator_traitsISaI6pollfdEE8allocateERS1_m
0000000000043e04 w _ZSt32__make_move_if_noexcept_iteratorI6pollfdSt13move_iteratorIPS0_EET0_PT_
0000000000043e2f w _ZSt22__uninitialized_copy_aISt13move_iteratorIP6pollfdES2_S1_ET0_T_S5_S4_RSaIT1_E
0000000000043e66 w _ZN9__gnu_cxx16__aligned_membufISt4pairIKiP7ChannelEE6_M_ptrEv
0000000000043e86 w _ZNSt10_Head_baseILm0ERKiLb0EEC1ES1_
0000000000043eaa w _ZNSt8_Rb_treeIiSt4pairIKiP7ChannelESt10_Select1stIS4_ESt4lessIiESaIS4_EE11_M_get_nodeEv
0000000000043ed8 w _ZNSt8_Rb_treeIiSt4pairIKiP7ChannelESt10_Select1stIS4_ESt4lessIiESaIS4_EE17_M_construct_nodeIJRKSt21piecewise_construct_tSt5tupleIJRS1_EESF_IJEEEEEvPSt13_Rb_tree_nodeIS4_EDpOT_
0000000000043fb4 w _ZNKSt23_Rb_tree_const_iteratorISt4pairIKiP7ChannelEE13_M_const_castEv
0000000000043fe2 w _ZNSt8_Rb_treeIiSt4pairIKiP7ChannelESt10_Select1stIS4_ESt4lessIiESaIS4_EE12_M_rightmostEv
0000000000043ffe w _ZNSt8_Rb_treeIiSt4pairIKiP7ChannelESt10_Select1stIS4_ESt4lessIiESaIS4_EE24_M_get_insert_unique_posERS1_
000000000004417a w _ZNSt8_Rb_treeIiSt4pairIKiP7ChannelESt10_Select1stIS4_ESt4lessIiESaIS4_EE11_M_leftmostEv
0000000000044196 w _ZNSt17_Rb_tree_iteratorISt4pairIKiP7ChannelEEmmEv
00000000000441c8 w _ZNSt17_Rb_tree_iteratorISt4pairIKiP7ChannelEEppEv
00000000000441f9 w _ZNSt8_Rb_treeIiSt4pairIKiP7ChannelESt10_Select1stIS4_ESt4lessIiESaIS4_EE8_S_valueEPKSt13_Rb_tree_nodeIS4_E
000000000004421a w _ZNSt11_Tuple_implILm0EJOiEEC1IiEEOT_
0000000000044254 w _ZNSt11_Tuple_implILm0EJOiEE7_M_headERS1_
0000000000044274 w _ZSt7forwardIOiEOT_RNSt16remove_referenceIS1_E4typeE
000000000004428c w _ZNSt10_Head_baseILm0EOiLb0EEC2IiEEOT_
00000000000442bc w _ZNSt8_Rb_treeIiSt4pairIKiP7ChannelESt10_Select1stIS4_ESt4lessIiESaIS4_EE17_M_construct_nodeIJRKSt21piecewise_construct_tSt5tupleIJOiEESF_IJEEEEEvPSt13_Rb_tree_nodeIS4_EDpOT_
0000000000044398 w _ZNSt8_Rb_treeIiSt4pairIKiP7ChannelESt10_Select1stIS4_ESt4lessIiESaIS4_EE14_M_upper_boundEPSt13_Rb_tree_nodeIS4_EPSt18_Rb_tree_node_baseRS1_
000000000004442e w _ZNSt4pairISt17_Rb_tree_iteratorIS_IKiP7ChannelEES5_EC1IS5_S5_Lb1EEEOT_OT0_
000000000004447e w _ZNSt8_Rb_treeIiSt4pairIKiP7ChannelESt10_Select1stIS4_ESt4lessIiESaIS4_EE5beginEv
00000000000444ae w _ZNKSt23_Rb_tree_const_iteratorISt4pairIKiP7ChannelEEeqERKS5_
00000000000444da w _ZNSt8_Rb_treeIiSt4pairIKiP7ChannelESt10_Select1stIS4_ESt4lessIiESaIS4_EE5clearEv
000000000004451e w _ZNSt23_Rb_tree_const_iteratorISt4pairIKiP7ChannelEEppEi
000000000004455e w _ZNSt8_Rb_treeIiSt4pairIKiP7ChannelESt10_Select1stIS4_ESt4lessIiESaIS4_EE12_M_erase_auxESt23_Rb_tree_const_iteratorIS4_E
00000000000445ba w _ZN9__gnu_cxx13new_allocatorI6pollfdEC1Ev
00000000000445d0 w _ZN9__gnu_cxx13new_allocatorI6pollfdE10deallocateEPS1_m
00000000000445fa w _ZNSt8_Rb_treeIiSt4pairIKiP7ChannelESt10_Select1stIS4_ESt4lessIiESaIS4_EE21_M_get_Node_allocatorEv
0000000000044612 w _ZNSt16allocator_traitsISaISt13_Rb_tree_nodeISt4pairIKiP7ChannelEEEE7destroyIS5_EEvRS7_PT_
000000000004463e w _ZNSt16allocator_traitsISaISt13_Rb_tree_nodeISt4pairIKiP7ChannelEEEE10deallocateERS7_PS6_m
0000000000044672 w _ZNSt16allocator_traitsISaIP7ChannelEE8max_sizeERKS2_
0000000000044692 w _ZNKSt12_Vector_baseIP7ChannelSaIS1_EE19_M_get_Tp_allocatorEv
00000000000446aa w _ZN9__gnu_cxx13new_allocatorIP7ChannelE8allocateEmPKv
00000000000446f2 w _ZNSt13move_iteratorIPP7ChannelEC1ES2_
0000000000044716 w _ZSt18uninitialized_copyISt13move_iteratorIPP7ChannelES3_ET0_T_S6_S5_
000000000004474d w _ZNSt16allocator_traitsISaI6pollfdEE8max_sizeERKS1_
000000000004476e w _ZNKSt12_Vector_baseI6pollfdSaIS0_EE19_M_get_Tp_allocatorEv
0000000000044786 w _ZN9__gnu_cxx13new_allocatorI6pollfdE8allocateEmPKv
00000000000447ce w _ZNSt13move_iteratorIP6pollfdEC1ES1_
00000000000447f2 w _ZSt18uninitialized_copyISt13move_iteratorIP6pollfdES2_ET0_T_S5_S4_
000000000004482a w _ZN9__gnu_cxx16__aligned_membufISt4pairIKiP7ChannelEE7_M_addrEv
0000000000044842 w _ZNSt16allocator_traitsISaISt13_Rb_tree_nodeISt4pairIKiP7ChannelEEEE8allocateERS7_m
0000000000044872 w _ZNSt16allocator_traitsISaISt13_Rb_tree_nodeISt4pairIKiP7ChannelEEEE9constructIS5_JRKSt21piecewise_construct_tSt5tupleIJRS2_EESD_IJEEEEEvRS7_PT_DpOT0_
00000000000448e4 w _ZNSt4pairIPSt18_Rb_tree_node_baseS1_EC1IRPSt13_Rb_tree_nodeIS_IKiP7ChannelEERS1_Lb1EEEOT_OT0_
000000000004492e w _ZNSt10_Head_baseILm0EOiLb0EE7_M_headERS1_
0000000000044949 w _ZNSt16allocator_traitsISaISt13_Rb_tree_nodeISt4pairIKiP7ChannelEEEE9constructIS5_JRKSt21piecewise_construct_tSt5tupleIJOiEESD_IJEEEEEvRS7_PT_DpOT0_
00000000000449bb w _ZSt7forwardISt17_Rb_tree_iteratorISt4pairIKiP7ChannelEEEOT_RNSt16remove_referenceIS7_E4typeE
00000000000449d4 w _ZN9__gnu_cxx13new_allocatorISt13_Rb_tree_nodeISt4pairIKiP7ChannelEEE7destroyIS6_EEvPT_
00000000000449ee w _ZN9__gnu_cxx13new_allocatorISt13_Rb_tree_nodeISt4pairIKiP7ChannelEEE10deallocateEPS7_m
0000000000044a18 w _ZNK9__gnu_cxx13new_allocatorIP7ChannelE8max_sizeEv
0000000000044a36 w _ZNSt20__uninitialized_copyILb1EE13__uninit_copyISt13move_iteratorIPP7ChannelES5_EET0_T_S8_S7_
0000000000044a6a w _ZNK9__gnu_cxx13new_allocatorI6pollfdE8max_sizeEv
0000000000044a88 w _ZNSt20__uninitialized_copyILb1EE13__uninit_copyISt13move_iteratorIP6pollfdES4_EET0_T_S7_S6_
0000000000044abc w _ZN9__gnu_cxx13new_allocatorISt13_Rb_tree_nodeISt4pairIKiP7ChannelEEE8allocateEmPKv
0000000000044b0e w _ZNSt5tupleIJRKiEEC1EOS2_
0000000000044b3a w _ZN9__gnu_cxx13new_allocatorISt13_Rb_tree_nodeISt4pairIKiP7ChannelEEE9constructIS6_JRKSt21piecewise_construct_tSt5tupleIJRS3_EESD_IJEEEEEvPT_DpOT0_
0000000000044bf4 w _ZSt7forwardIRPSt13_Rb_tree_nodeISt4pairIKiP7ChannelEEEOT_RNSt16remove_referenceIS9_E4typeE
0000000000044c0c w _ZN9__gnu_cxx13new_allocatorISt13_Rb_tree_nodeISt4pairIKiP7ChannelEEE9constructIS6_JRKSt21piecewise_construct_tSt5tupleIJOiEESD_IJEEEEEvPT_DpOT0_
0000000000044cc6 w _ZSt4copyISt13move_iteratorIPP7ChannelES3_ET0_T_S6_S5_
0000000000044d18 w _ZSt4copyISt13move_iteratorIP6pollfdES2_ET0_T_S5_S4_
0000000000044d6a w _ZNK9__gnu_cxx13new_allocatorISt13_Rb_tree_nodeISt4pairIKiP7ChannelEEE8max_sizeEv
0000000000044d88 w _ZNSt11_Tuple_implILm0EJRKiEEC1EOS2_
0000000000044dca w _ZNSt4pairIKiP7ChannelEC1IJRS0_EJEEESt21piecewise_construct_tSt5tupleIJDpT_EES7_IJDpT0_EE
0000000000044e02 w _ZNSt4pairIKiP7ChannelEC1IJOiEJEEESt21piecewise_construct_tSt5tupleIJDpT_EES7_IJDpT0_EE
0000000000044e3a w _ZSt12__miter_baseIPP7ChannelEDTcl12__miter_basecldtfp_4baseEEESt13move_iteratorIT_E
0000000000044e62 w _ZSt14__copy_move_a2ILb1EPP7ChannelS2_ET1_T0_S4_S3_
0000000000044ec0 w _ZSt12__miter_baseIP6pollfdEDTcl12__miter_basecldtfp_4baseEEESt13move_iteratorIT_E
0000000000044ee8 w _ZSt14__copy_move_a2ILb1EP6pollfdS1_ET1_T0_S3_S2_
0000000000044f46 w _ZNSt11_Tuple_implILm0EJRKiEE7_M_headERS2_
0000000000044f66 w _ZSt7forwardIRKiEOT_RNSt16remove_referenceIS2_E4typeE
0000000000044f7e w _ZNSt4pairIKiP7ChannelEC2IJRS0_EJLm0EEJEJEEERSt5tupleIJDpT_EERS6_IJDpT1_EESt12_Index_tupleIJXspT0_EEESF_IJXspT2_EEE
0000000000044fc4 w _ZNSt4pairIKiP7ChannelEC2IJOiEJLm0EEJEJEEERSt5tupleIJDpT_EERS6_IJDpT1_EESt12_Index_tupleIJXspT0_EEESF_IJXspT2_EEE
000000000004500a w _ZNKSt13move_iteratorIPP7ChannelE4baseEv
0000000000045025 w _ZSt12__miter_baseIPP7ChannelET_S3_
000000000004503d w _ZSt12__niter_baseIPP7ChannelET_S3_
0000000000045055 w _ZSt13__copy_move_aILb1EPP7ChannelS2_ET1_T0_S4_S3_
000000000004508c w _ZNKSt13move_iteratorIP6pollfdE4baseEv
00000000000450a7 w _ZSt12__miter_baseIP6pollfdET_S2_
00000000000450bf w _ZSt12__niter_baseIP6pollfdET_S2_
00000000000450d7 w _ZSt13__copy_move_aILb1EP6pollfdS1_ET1_T0_S3_S2_
000000000004510e w _ZNSt10_Head_baseILm0ERKiLb0EE7_M_headERS2_
0000000000045129 w _ZSt3getILm0EJRKiEERNSt13tuple_elementIXT_ESt5tupleIJDpT0_EEE4typeERS6_
0000000000045149 w _ZSt3getILm0EJOiEERNSt13tuple_elementIXT_ESt5tupleIJDpT0_EEE4typeERS5_
0000000000045169 w _ZNSt11__copy_moveILb1ELb1ESt26random_access_iterator_tagE8__copy_mIP7ChannelEEPT_PKS5_S8_S6_
00000000000451d4 w _ZNSt11__copy_moveILb1ELb1ESt26random_access_iterator_tagE8__copy_mI6pollfdEEPT_PKS4_S7_S5_
000000000004523f w _ZSt12__get_helperILm0ERKiJEERT0_RSt11_Tuple_implIXT_EJS2_DpT1_EE
000000000004525f w _ZSt12__get_helperILm0EOiJEERT0_RSt11_Tuple_implIXT_EJS1_DpT1_EE
0000000000045280 T _ZN6SocketD1Ev
00000000000452a2 T _ZN6Socket11bindAddressERK11InetAddress
00000000000452da T _ZN6Socket6listenEv
00000000000452fc T _ZN6Socket6acceptEP11InetAddress
0000000000045364 T _ZN6Socket12setReuseAddrEb
00000000000453b8 T _ZN6Socket13shutdownWriteEv
00000000000453da t _Z41__static_initialization_and_destruction_0ii
0000000000045429 t _GLOBAL__sub_I__ZN6SocketD2Ev
0000000000045444 w _ZNK11InetAddress15getSockAddrInetEv
000000000004545c w _ZN11InetAddress15setSockAddrInetERK11sockaddr_in
000000000004548b T _Z13sockaddr_castPK11sockaddr_in
00000000000454ab T _Z13sockaddr_castP11sockaddr_in
00000000000454cb T _Z25setNonBlockAndCloseOnExeci
0000000000045556 T _ZN7sockets22createNonblockingOrDieEv
00000000000455ae T _ZN7sockets9bindOrDieEiRK11sockaddr_in
0000000000045618 T _ZN7sockets11listenOrDieEi
000000000004566c T _ZN7sockets6acceptEiP11sockaddr_in
000000000004579a T _ZN7sockets5closeEi
00000000000457e7 T _ZN7sockets10toHostPortEPcmRK11sockaddr_in
0000000000045879 T _ZN7sockets12fromHostPortEPKctP11sockaddr_in
0000000000045900 T _ZN7sockets12getLocalAddrEi
0000000000045982 T _ZN7sockets14getSocketErrorEi
00000000000459d1 T _ZN7sockets13shutdownWriteEi
0000000000045a23 t _Z41__static_initialization_and_destruction_0ii
0000000000045a72 t _GLOBAL__sub_I__Z13sockaddr_castPK11sockaddr_in
0000000000045a8d w _ZN7sockets15networkToHost16Et
0000000000045aae w _ZN5boost13implicit_castIPKvEET_NS_6detail14icast_identityIS3_E4typeE
0000000000045ac6 w _ZN5boost13implicit_castIPvEET_NS_6detail14icast_identityIS2_E4typeE
0000000000045ade T _ZN13TcpConnectionC1EP9EventLoopRKNSt7__cxx1112basic_stringIcSt11char_traitsIcESaIcEEEiRK11InetAddressSC_
000000000004613e T _ZN13TcpConnectionD1Ev
0000000000046292 T _ZN13TcpConnection18connectEstablishedEv
0000000000046362 T _ZN13TcpConnection10handleReadEv
0000000000046454 T _ZN13TcpConnection11handleCloseEv
000000000004655e T _ZN13TcpConnection11handleErrorEv
0000000000046620 T _ZN13TcpConnection16connectDestroyedEv
000000000004672c T _ZN13TcpConnection4sendEP6Buffer
000000000004679c T _ZN13TcpConnection10sendInLoopEPKvm
0000000000046972 T _ZN13TcpConnection8shutdownEv
0000000000046a4a T _ZN13TcpConnection14shutdownInLoopEv
0000000000046aa6 T _ZN13TcpConnection11handleWriteEv
0000000000046c3b t _Z41__static_initialization_and_destruction_0ii
0000000000046c8a t _GLOBAL__sub_I__ZN13TcpConnectionC2EP9EventLoopRKNSt7__cxx1112basic_stringIcSt11char_traitsIcESaIcEEEiRK11InetAddressSC_
0000000000046ca6 w _ZNSt9exceptionC1Ev
0000000000046cca w _ZNSt9exceptionC2ERKS_
0000000000046cf2 w _ZNK5boost12bad_weak_ptr4whatEv
0000000000046d0d w _ZN5boost6detail23atomic_exchange_and_addEPii
0000000000046d39 w _ZN5boost6detail28atomic_conditional_incrementEPi
0000000000046d6e w _ZN5boost6detail15sp_counted_base12add_ref_lockEv
0000000000046d98 w _ZN5boost6detail15sp_counted_base7releaseEv
0000000000046df0 w _ZN5boost6detail15sp_counted_base12weak_releaseEv
0000000000046e3c w _ZN5boost6detail12shared_countD1Ev
0000000000046e6c w _ZN5boost6detail10weak_countC2Ev
0000000000046e8c w _ZN5boost6detail10weak_countD2Ev
0000000000046ebc w _ZN5boost12bad_weak_ptrC2Ev
0000000000046eec w _ZN5boost6detail12shared_countC1ERKNS0_10weak_countE
0000000000046f86 w _ZN6Buffer6appendEPKvm
0000000000046fba w _ZN5boost3anyC1Ev
0000000000046fda w _ZN13TcpConnection8setStateENS_6StateEE
0000000000046ffc w _ZN7Channel16setWriteCallbackERKN5boost8functionIFvvEEE
000000000004702c w _ZN7Channel16setErrorCallbackERKN5boost8functionIFvvEEE
000000000004705c w _ZN7Channel16setCloseCallbackERKN5boost8functionIFvvEEE
0000000000047090 w _ZN7Channel13enableWritingEv
00000000000470c8 w _ZN7Channel14disableWritingEv
0000000000047102 w _ZN7Channel10disableAllEv
0000000000047130 w _ZNK7Channel9isWritingEv
0000000000047158 w _ZN5boost10shared_ptrI13TcpConnectionED1Ev
000000000004717e w _ZN5boost12bad_weak_ptrC2ERKS0_
00000000000471b8 w _ZN5boost12bad_weak_ptrD1Ev
00000000000471e8 w _ZN5boost12bad_weak_ptrD0Ev
000000000004721a w _ZN5boost16exception_detail19error_info_injectorINS_12bad_weak_ptrEEC2ERKS3_
00000000000472a0 w _ZN5boost16exception_detail10clone_implINS0_19error_info_injectorINS_12bad_weak_ptrEEEEC1ERKS5_
000000000004734b w _ZN5boost15throw_exceptionINS_12bad_weak_ptrEEEvRKT_
00000000000473e4 w _ZN5boost8weak_ptrI13TcpConnectionED2Ev
000000000004740a w _ZN5boost23enable_shared_from_thisI13TcpConnectionEC1Ev
000000000004742c w _ZN5boost23enable_shared_from_thisI13TcpConnectionED1Ev
000000000004744e w _ZN5boost10scoped_ptrI6SocketEC2EPS1_
0000000000047472 w _ZN5boost10scoped_ptrI6SocketED1Ev
0000000000047496 w _ZN5boost8functionIFvRKNS_10shared_ptrI13TcpConnectionEEEEC1Ev
00000000000474b8 w _ZN5boost8functionIFvRKNS_10shared_ptrI13TcpConnectionEEP6BufferiEEC1Ev
00000000000474da w _ZNK5boost10scoped_ptrI7ChannelEptEv
0000000000047520 w _ZN5boost4bindIv13TcpConnectionPS1_EENS_3_bi6bind_tIT_NS_4_mfi3mf0IS5_T0_EENS3_9list_av_1IT1_E4typeEEEMS8_FS5_vESB_
00000000000475a2 w _ZN5boost8functionIFvvEEC2INS_3_bi6bind_tIvNS_4_mfi3mf0Iv13TcpConnectionEENS4_5list1INS4_5valueIPS8_EEEEEEEET_NS_11enable_if_cIXntsrNS_11is_integralISG_EE5valueEiE4typeE
00000000000475dc w _ZN5boost23enable_shared_from_thisI13TcpConnectionE16shared_from_thisEv
000000000004763e w _ZNK5boost9function1IvRKNS_10shared_ptrI13TcpConnectionEEEclES5_
00000000000476d0 w _ZNK5boost9function3IvRKNS_10shared_ptrI13TcpConnectionEEP6BufferiEclES5_S7_i
0000000000047791 w _ZN5boost11get_pointerI7ChannelEEPT_RKNS_10scoped_ptrIS2_EE
00000000000477b2 w _ZNK5boost10scoped_ptrI6SocketEptEv
00000000000477f8 w _ZN5boost17enable_error_infoINS_12bad_weak_ptrEEENS_16exception_detail29enable_error_info_return_typeIT_E4typeERKS4_
0000000000047828 w _ZN5boost16exception_detail19error_info_injectorINS_12bad_weak_ptrEED1Ev
0000000000047876 w _ZThn8_N5boost16exception_detail19error_info_injectorINS_12bad_weak_ptrEED1Ev
000000000004787c w _ZN5boost16exception_detail19error_info_injectorINS_12bad_weak_ptrEED0Ev
00000000000478ad w _ZThn8_N5boost16exception_detail19error_info_injectorINS_12bad_weak_ptrEED0Ev
00000000000478b3 w _ZN5boost24enable_current_exceptionINS_16exception_detail19error_info_injectorINS_12bad_weak_ptrEEEEENS1_10clone_implIT_EERKS6_
00000000000478e2 w _ZN5boost16exception_detail10clone_implINS0_19error_info_injectorINS_12bad_weak_ptrEEEED1Ev
0000000000047942 w _ZThn8_N5boost16exception_detail10clone_implINS0_19error_info_injectorINS_12bad_weak_ptrEEEED1Ev
0000000000047948 w _ZTv0_n40_N5boost16exception_detail10clone_implINS0_19error_info_injectorINS_12bad_weak_ptrEEEED1Ev
0000000000047952 w _ZN5boost16exception_detail10clone_implINS0_19error_info_injectorINS_12bad_weak_ptrEEEED0Ev
0000000000047983 w _ZThn8_N5boost16exception_detail10clone_implINS0_19error_info_injectorINS_12bad_weak_ptrEEEED0Ev
0000000000047989 w _ZTv0_n40_N5boost16exception_detail10clone_implINS0_19error_info_injectorINS_12bad_weak_ptrEEEED0Ev
0000000000047992 w _ZN5boost8weak_ptrI13TcpConnectionEC1Ev
00000000000479c2 w _ZN5boost14checked_deleteI6SocketEEvPT_
00000000000479fc w _ZN5boost4_mfi3mf0Iv13TcpConnectionEC2EMS2_FvvE
0000000000047a36 w _ZN5boost3_bi5valueIP13TcpConnectionEC1ERKS3_
0000000000047a5e w _ZN5boost3_bi5list1INS0_5valueIP13TcpConnectionEEEC1ES5_
0000000000047a8a w _ZN5boost3_bi6bind_tIvNS_4_mfi3mf0Iv13TcpConnectionEENS0_5list1INS0_5valueIPS4_EEEEEC1ES5_RKSA_
0000000000047ad6 w _ZN5boost9function0IvEC1INS_3_bi6bind_tIvNS_4_mfi3mf0Iv13TcpConnectionEENS3_5list1INS3_5valueIPS7_EEEEEEEET_NS_11enable_if_cIXntsrNS_11is_integralISF_EE5valueEiE4typeE
0000000000047b18 w _ZN5boost10shared_ptrI13TcpConnectionEC2IS1_EERKNS_8weak_ptrIT_EE
0000000000047b60 w _ZNK5boost10shared_ptrI13TcpConnectionE3getEv
0000000000047b7c w _ZNK5boost10scoped_ptrI7ChannelE3getEv
0000000000047b98 w _ZN5boost16exception_detail19error_info_injectorINS_12bad_weak_ptrEEC1ERKS2_
0000000000047bf2 w _ZN5boost16exception_detail10clone_implINS0_19error_info_injectorINS_12bad_weak_ptrEEEEC1ERKS4_
0000000000047cae w _ZN5boost3_bi8storage1INS0_5valueIP13TcpConnectionEEEC1ES5_
0000000000047cd2 w _ZN5boost9function0IvE9assign_toINS_3_bi6bind_tIvNS_4_mfi3mf0Iv13TcpConnectionEENS3_5list1INS3_5valueIPS7_EEEEEEEEvT_
0000000000047d3b w _ZN5boost6detail21sp_assert_convertibleI13TcpConnectionS2_EEvv
0000000000047d48 w _ZN5boost6detail8function15functor_managerINS_3_bi6bind_tIvNS_4_mfi3mf0Iv13TcpConnectionEENS3_5list1INS3_5valueIPS7_EEEEEEE6manageERKNS1_15function_bufferERSG_NS1_30functor_manager_operation_typeE
0000000000047dbd w _ZN5boost6detail8function26void_function_obj_invoker0INS_3_bi6bind_tIvNS_4_mfi3mf0Iv13TcpConnectionEENS3_5list1INS3_5valueIPS7_EEEEEEvE6invokeERNS1_15function_bufferE
0000000000047de6 w _ZNK5boost6detail8function13basic_vtable0IvE9assign_toINS_3_bi6bind_tIvNS_4_mfi3mf0Iv13TcpConnectionEENS5_5list1INS5_5valueIPS9_EEEEEEEEbT_RNS1_15function_bufferE
0000000000047e1f w _ZN5boost9typeindex7type_idINS_3_bi6bind_tIvNS_4_mfi3mf0Iv13TcpConnectionEENS2_5list1INS2_5valueIPS6_EEEEEEEENS0_14stl_type_indexEv
0000000000047e30 w _ZN5boost6detail8function15functor_managerINS_3_bi6bind_tIvNS_4_mfi3mf0Iv13TcpConnectionEENS3_5list1INS3_5valueIPS7_EEEEEEE7managerERKNS1_15function_bufferERSG_NS1_30functor_manager_operation_typeENS1_16function_obj_tagE
0000000000047e6c w _ZN5boost3_bi6bind_tIvNS_4_mfi3mf0Iv13TcpConnectionEENS0_5list1INS0_5valueIPS4_EEEEEclEv
0000000000047eb8 w _ZNK5boost6detail8function13basic_vtable0IvE9assign_toINS_3_bi6bind_tIvNS_4_mfi3mf0Iv13TcpConnectionEENS5_5list1INS5_5valueIPS9_EEEEEEEEbT_RNS1_15function_bufferENS1_16function_obj_tagE
0000000000047f3a w _ZN5boost9typeindex14stl_type_index7type_idINS_3_bi6bind_tIvNS_4_mfi3mf0Iv13TcpConnectionEENS3_5list1INS3_5valueIPS7_EEEEEEEES1_v
0000000000047f61 w _ZN5boost6detail8function15functor_managerINS_3_bi6bind_tIvNS_4_mfi3mf0Iv13TcpConnectionEENS3_5list1INS3_5valueIPS7_EEEEEEE7managerERKNS1_15function_bufferERSG_NS1_30functor_manager_operation_typeEN4mpl_5bool_ILb1EEE
0000000000047f94 w _ZN5boost3_bi5list1INS0_5valueIP13TcpConnectionEEEclINS_4_mfi3mf0IvS3_EENS0_5list0EEEvNS0_4typeIvEERT_RT0_i
0000000000047ff0 w _ZNK5boost6detail8function13basic_vtable0IvE14assign_functorINS_3_bi6bind_tIvNS_4_mfi3mf0Iv13TcpConnectionEENS5_5list1INS5_5valueIPS9_EEEEEEEEvT_RNS1_15function_bufferEN4mpl_5bool_ILb1EEE
0000000000048039 w _ZN5boost6detail8function22functor_manager_commonINS_3_bi6bind_tIvNS_4_mfi3mf0Iv13TcpConnectionEENS3_5list1INS3_5valueIPS7_EEEEEEE12manage_smallERKNS1_15function_bufferERSG_NS1_30functor_manager_operation_typeE
0000000000048138 w _ZN5boost3_bi9unwrapperINS_4_mfi3mf0Iv13TcpConnectionEEE6unwrapERS5_l
0000000000048154 w _ZNK5boost3_bi5list0ixIP13TcpConnectionEERT_RNS0_5valueIS5_EE
0000000000048178 w _ZNK5boost4_mfi3mf0Iv13TcpConnectionEclEPS2_
00000000000481e6 w _ZN5boost3_bi5valueIP13TcpConnectionE3getEv
00000000000481fe w _ZNK5boost16exception_detail10clone_implINS0_19error_info_injectorINS_12bad_weak_ptrEEEE5cloneEv
000000000004827d w _ZTv0_n24_NK5boost16exception_detail10clone_implINS0_19error_info_injectorINS_12bad_weak_ptrEEEE5cloneEv
000000000004828a w _ZNK5boost16exception_detail10clone_implINS0_19error_info_injectorINS_12bad_weak_ptrEEEE7rethrowEv
00000000000482e7 w _ZTv0_n32_NK5boost16exception_detail10clone_implINS0_19error_info_injectorINS_12bad_weak_ptrEEEE7rethrowEv
00000000000482f0 w _ZN5boost16exception_detail10clone_implINS0_19error_info_injectorINS_12bad_weak_ptrEEEEC1ERKS5_NS5_9clone_tagE
00000000000483ac T _ZN9TcpServerC1EP9EventLoopRK11InetAddress
00000000000485a8 T _ZN9TcpServerD2Ev
000000000004860e T _ZN9TcpServer5startEv
000000000004870c T _ZN9TcpServer13newConnectionEiRK11InetAddress
0000000000048ac8 T _ZN9TcpServer16removeConnectionERKN5boost10shared_ptrI13TcpConnectionEE
0000000000048cbc t _Z41__static_initialization_and_destruction_0ii
0000000000048d0b t _GLOBAL__sub_I__ZN9TcpServerC2EP9EventLoopRK11InetAddress
0000000000048d26 w _ZN5boost6detail16atomic_incrementEPi
0000000000048d46 w _ZN5boost6detail15sp_counted_baseC2Ev
0000000000048d80 w _ZN5boost6detail15sp_counted_baseD1Ev
0000000000048da4 w _ZN5boost6detail15sp_counted_baseD0Ev
0000000000048dd6 w _ZN5boost6detail15sp_counted_base7destroyEv
0000000000048e0a w _ZN5boost6detail15sp_counted_base12add_ref_copyEv
0000000000048e30 w _ZN5boost6detail15sp_counted_base12weak_add_refEv
0000000000048e56 w _ZNK5boost6detail15sp_counted_base9use_countEv
0000000000048e76 w _ZN5boost6detail12shared_countC2Ev
0000000000048e96 w _ZN5boost6detail12shared_countC2ERKS1_
0000000000048ed8 w _ZN5boost6detail12shared_count4swapERS1_
0000000000048f16 w _ZN5boost6detail10weak_countaSERKNS0_12shared_countE
0000000000048f84 w _ZNK5boost6detail10weak_count9use_countEv
0000000000048fba w _ZN11InetAddressC1ERK11sockaddr_in
0000000000048fea w _ZNK13TcpConnection4nameB5cxx11Ev
0000000000049006 w _ZN13TcpConnection21setConnectionCallbackERKN5boost8functionIFvRKNS0_10shared_ptrIS_EEEEE
0000000000049036 w _ZN13TcpConnection18setMessageCallbackERKN5boost8functionIFvRKNS0_10shared_ptrIS_EEP6BufferiEEE
000000000004906a w _ZN13TcpConnection16setCloseCallbackERKN5boost8functionIFvRKNS0_10shared_ptrIS_EEEEE
000000000004909e w _ZN8Acceptor24setNewConnectionCallbackERKN5boost8functionIFviRK11InetAddressEEE
00000000000490d2 w _ZNK8Acceptor10listenningEv
00000000000490f2 w _ZNSt8_Rb_treeINSt7__cxx1112basic_stringIcSt11char_traitsIcESaIcEEESt4pairIKS5_N5boost10shared_ptrI13TcpConnectionEEESt10_Select1stISC_ESt4lessIS5_ESaISC_EE13_Rb_tree_implISG_Lb1EEC2Ev
0000000000049130 w _ZNSt8_Rb_treeINSt7__cxx1112basic_stringIcSt11char_traitsIcESaIcEEESt4pairIKS5_N5boost10shared_ptrI13TcpConnectionEEESt10_Select1stISC_ESt4lessIS5_ESaISC_EE13_Rb_tree_implISG_Lb1EED2Ev
0000000000049152 w _ZNSt8_Rb_treeINSt7__cxx1112basic_stringIcSt11char_traitsIcESaIcEEESt4pairIKS5_N5boost10shared_ptrI13TcpConnectionEEESt10_Select1stISC_ESt4lessIS5_ESaISC_EEC1Ev
0000000000049174 w _ZNSt3mapINSt7__cxx1112basic_stringIcSt11char_traitsIcESaIcEEEN5boost10shared_ptrI13TcpConnectionEESt4lessIS5_ESaISt4pairIKS5_S9_EEEC1Ev
0000000000049196 w _ZNSt3mapINSt7__cxx1112basic_stringIcSt11char_traitsIcESaIcEEEN5boost10shared_ptrI13TcpConnectionEESt4lessIS5_ESaISt4pairIKS5_S9_EEED1Ev
00000000000491b8 w _ZN5boost3_bi5valueINS_10shared_ptrI13TcpConnectionEEED1Ev
00000000000491da w _ZN5boost3_bi8storage1INS0_5valueINS_10shared_ptrI13TcpConnectionEEEEED1Ev
00000000000491fc w _ZN5boost3_bi5list1INS0_5valueINS_10shared_ptrI13TcpConnectionEEEEED1Ev
000000000004921e w _ZN5boost3_bi6bind_tIvNS_4_mfi3mf0Iv13TcpConnectionEENS0_5list1INS0_5valueINS_10shared_ptrIS4_EEEEEEED2Ev
0000000000049244 w _ZN5boost8functionIFviRK11InetAddressEEaSERKS5_
00000000000492b4 w _ZStplIcSt11char_traitsIcESaIcEENSt7__cxx1112basic_stringIT_T0_T1_EERKS8_PKS5_
000000000004931c w _ZN5boost10scoped_ptrI8AcceptorEC2EPS1_
0000000000049340 w _ZN5boost10scoped_ptrI8AcceptorED1Ev
0000000000049364 w _ZNSaISt13_Rb_tree_nodeISt4pairIKNSt7__cxx1112basic_stringIcSt11char_traitsIcESaIcEEEN5boost10shared_ptrI13TcpConnectionEEEEEC2Ev
0000000000049386 w _ZNSaISt13_Rb_tree_nodeISt4pairIKNSt7__cxx1112basic_stringIcSt11char_traitsIcESaIcEEEN5boost10shared_ptrI13TcpConnectionEEEEED2Ev
00000000000493a8 w _ZNSt8_Rb_treeINSt7__cxx1112basic_stringIcSt11char_traitsIcESaIcEEESt4pairIKS5_N5boost10shared_ptrI13TcpConnectionEEESt10_Select1stISC_ESt4lessIS5_ESaISC_EED2Ev
00000000000493e8 w _ZNK5boost10scoped_ptrI8AcceptorEptEv
000000000004942e w _ZN5boost4bindIv9TcpServeriRK11InetAddressPS1_NS_3argILi1EEENS6_ILi2EEEEENS_3_bi6bind_tIT_NS_4_mfi3mf2ISB_T0_T1_T2_EENS9_9list_av_3IT3_T4_T5_E4typeEEEMSE_FSB_SF_SG_ESJ_SK_SL_
00000000000494c2 w _ZN5boost8functionIFviRK11InetAddressEEC2INS_3_bi6bind_tIvNS_4_mfi3mf2Iv9TcpServeriS3_EENS7_5list3INS7_5valueIPSB_EENS_3argILi1EEENSH_ILi2EEEEEEEEET_NS_11enable_if_cIXntsrNS_11is_integralISM_EE5valueEiE4typeE
00000000000494fc w _ZN5boost11get_pointerI8AcceptorEEPT_RKNS_10scoped_ptrIS2_EE
000000000004951c w _ZN5boost10shared_ptrI13TcpConnectionEC2IS1_EEPT_
0000000000049590 w _ZNSt3mapINSt7__cxx1112basic_stringIcSt11char_traitsIcESaIcEEEN5boost10shared_ptrI13TcpConnectionEESt4lessIS5_ESaISt4pairIKS5_S9_EEEixERSD_
0000000000049690 w _ZN5boost10shared_ptrI13TcpConnectionEaSERKS2_
00000000000496de w _ZN5boost4bindIv9TcpServerRKNS_10shared_ptrI13TcpConnectionEEPS1_NS_3argILi1EEEEENS_3_bi6bind_tIT_NS_4_mfi3mf1ISC_T0_T1_EENSA_9list_av_2IT2_T3_E4typeEEEMSF_FSC_SG_ESJ_SK_
000000000004976e w _ZN5boost8functionIFvRKNS_10shared_ptrI13TcpConnectionEEEEC2INS_3_bi6bind_tIvNS_4_mfi3mf1Iv9TcpServerS5_EENS9_5list2INS9_5valueIPSD_EENS_3argILi1EEEEEEEEET_NS_11enable_if_cIXntsrNS_11is_integralISN_EE5valueEiE4typeE
00000000000497a8 w _ZNSt3mapINSt7__cxx1112basic_stringIcSt11char_traitsIcESaIcEEEN5boost10shared_ptrI13TcpConnectionEESt4lessIS5_ESaISt4pairIKS5_S9_EEE5eraseERSD_
00000000000497d4 w _ZN5boost10shared_ptrI13TcpConnectionEC2ERKS2_
0000000000049816 w _ZN5boost4bindIv13TcpConnectionNS_10shared_ptrIS1_EEEENS_3_bi6bind_tIT_NS_4_mfi3mf0IS6_T0_EENS4_9list_av_1IT1_E4typeEEEMS9_FS6_vESC_
00000000000498d2 w _ZN5boost3_bi5valueINS_10shared_ptrI13TcpConnectionEEEC2ERKS5_
00000000000498fe w _ZN5boost3_bi8storage1INS0_5valueINS_10shared_ptrI13TcpConnectionEEEEEC1ERKS7_
000000000004992a w _ZN5boost3_bi5list1INS0_5valueINS_10shared_ptrI13TcpConnectionEEEEEC2ERKS7_
0000000000049956 w _ZN5boost3_bi6bind_tIvNS_4_mfi3mf0Iv13TcpConnectionEENS0_5list1INS0_5valueINS_10shared_ptrIS4_EEEEEEEC2ERKSC_
00000000000499a0 w _ZN5boost8functionIFvvEEC1INS_3_bi6bind_tIvNS_4_mfi3mf0Iv13TcpConnectionEENS4_5list1INS4_5valueINS_10shared_ptrIS8_EEEEEEEEEET_NS_11enable_if_cIXntsrNS_11is_integralISH_EE5valueEiE4typeE
0000000000049a14 w _ZN5boost8functionIFviRK11InetAddressEEC2ERKS5_
0000000000049a40 w _ZN5boost9function2IviRK11InetAddressE4swapERS4_
0000000000049ad6 w _ZN8AcceptorD2Ev
0000000000049b1d w _ZN5boost14checked_deleteI8AcceptorEEvPT_
0000000000049b56 w _ZN9__gnu_cxx13new_allocatorISt13_Rb_tree_nodeISt4pairIKNSt7__cxx1112basic_stringIcSt11char_traitsIcESaIcEEEN5boost10shared_ptrI13TcpConnectionEEEEEC2Ev
0000000000049b6c w _ZN9__gnu_cxx13new_allocatorISt13_Rb_tree_nodeISt4pairIKNSt7__cxx1112basic_stringIcSt11char_traitsIcESaIcEEEN5boost10shared_ptrI13TcpConnectionEEEEED2Ev
0000000000049b82 w _ZNSt8_Rb_treeINSt7__cxx1112basic_stringIcSt11char_traitsIcESaIcEEESt4pairIKS5_N5boost10shared_ptrI13TcpConnectionEEESt10_Select1stISC_ESt4lessIS5_ESaISC_EE8_M_eraseEPSt13_Rb_tree_nodeISC_E
0000000000049bee w _ZNSt8_Rb_treeINSt7__cxx1112basic_stringIcSt11char_traitsIcESaIcEEESt4pairIKS5_N5boost10shared_ptrI13TcpConnectionEEESt10_Select1stISC_ESt4lessIS5_ESaISC_EE8_M_beginEv
0000000000049c0a w _ZN5boost4_mfi3mf2Iv9TcpServeriRK11InetAddressEC1EMS2_FviS5_E
0000000000049c44 w _ZN5boost3_bi5valueIP9TcpServerEC2ERKS3_
0000000000049c6c w _ZN5boost3_bi5list3INS0_5valueIP9TcpServerEENS_3argILi1EEENS6_ILi2EEEEC1ES5_S7_S8_
0000000000049ca0 w _ZN5boost3_bi6bind_tIvNS_4_mfi3mf2Iv9TcpServeriRK11InetAddressEENS0_5list3INS0_5valueIPS4_EENS_3argILi1EEENSD_ILi2EEEEEEC2ES8_RKSG_
0000000000049cec w _ZN5boost9function2IviRK11InetAddressEC1INS_3_bi6bind_tIvNS_4_mfi3mf2Iv9TcpServeriS3_EENS6_5list3INS6_5valueIPSA_EENS_3argILi1EEENSG_ILi2EEEEEEEEET_NS_11enable_if_cIXntsrNS_11is_integralISL_EE5valueEiE4typeE
0000000000049d2e w _ZNK5boost10scoped_ptrI8AcceptorE3getEv
0000000000049d49 w _ZN5boost6detail20sp_pointer_constructI13TcpConnectionS2_EEvPNS_10shared_ptrIT_EEPT0_RNS0_12shared_countE
0000000000049db0 w _ZNSt3mapINSt7__cxx1112basic_stringIcSt11char_traitsIcESaIcEEEN5boost10shared_ptrI13TcpConnectionEESt4lessIS5_ESaISt4pairIKS5_S9_EEE11lower_boundERSD_
0000000000049ddc w _ZNSt3mapINSt7__cxx1112basic_stringIcSt11char_traitsIcESaIcEEEN5boost10shared_ptrI13TcpConnectionEESt4lessIS5_ESaISt4pairIKS5_S9_EEE3endEv
0000000000049dfc w _ZNKSt17_Rb_tree_iteratorISt4pairIKNSt7__cxx1112basic_stringIcSt11char_traitsIcESaIcEEEN5boost10shared_ptrI13TcpConnectionEEEEeqERKSD_
0000000000049e28 w _ZNKSt3mapINSt7__cxx1112basic_stringIcSt11char_traitsIcESaIcEEEN5boost10shared_ptrI13TcpConnectionEESt4lessIS5_ESaISt4pairIKS5_S9_EEE8key_compEv
0000000000049e50 w _ZNKSt17_Rb_tree_iteratorISt4pairIKNSt7__cxx1112basic_stringIcSt11char_traitsIcESaIcEEEN5boost10shared_ptrI13TcpConnectionEEEEdeEv
0000000000049e74 w _ZNSt23_Rb_tree_const_iteratorISt4pairIKNSt7__cxx1112basic_stringIcSt11char_traitsIcESaIcEEEN5boost10shared_ptrI13TcpConnectionEEEEC2ERKSt17_Rb_tree_iteratorISC_E
0000000000049e9c w _ZNSt8_Rb_treeINSt7__cxx1112basic_stringIcSt11char_traitsIcESaIcEEESt4pairIKS5_N5boost10shared_ptrI13TcpConnectionEEESt10_Select1stISC_ESt4lessIS5_ESaISC_EE22_M_emplace_hint_uniqueIJRKSt21piecewise_construct_tSt5tupleIJRS7_EESN_IJEEEEESt17_Rb_tree_iteratorISC_ESt23_Rb_tree_const_iteratorISC_EDpOT_
0000000000049fba w _ZN5boost10shared_ptrI13TcpConnectionE4swapERS2_
000000000004a002 w _ZN5boost4_mfi3mf1Iv9TcpServerRKNS_10shared_ptrI13TcpConnectionEEEC1EMS2_FvS7_E
000000000004a03c w _ZN5boost3_bi5list2INS0_5valueIP9TcpServerEENS_3argILi1EEEEC1ES5_S7_
000000000004a072 w _ZN5boost3_bi6bind_tIvNS_4_mfi3mf1Iv9TcpServerRKNS_10shared_ptrI13TcpConnectionEEEENS0_5list2INS0_5valueIPS4_EENS_3argILi1EEEEEEC2ESA_RKSH_
000000000004a0be w _ZN5boost9function1IvRKNS_10shared_ptrI13TcpConnectionEEEC2INS_3_bi6bind_tIvNS_4_mfi3mf1Iv9TcpServerS5_EENS8_5list2INS8_5valueIPSC_EENS_3argILi1EEEEEEEEET_NS_11enable_if_cIXntsrNS_11is_integralISM_EE5valueEiE4typeE
000000000004a100 w _ZNSt8_Rb_treeINSt7__cxx1112basic_stringIcSt11char_traitsIcESaIcEEESt4pairIKS5_N5boost10shared_ptrI13TcpConnectionEEESt10_Select1stISC_ESt4lessIS5_ESaISC_EE5eraseERS7_
000000000004a19a w _ZN5boost3_bi5valueINS_10shared_ptrI13TcpConnectionEEEC2ERKS4_
000000000004a1c6 w _ZN5boost3_bi5list1INS0_5valueINS_10shared_ptrI13TcpConnectionEEEEEC1ES6_
000000000004a218 w _ZN5boost3_bi6bind_tIvNS_4_mfi3mf0Iv13TcpConnectionEENS0_5list1INS0_5valueINS_10shared_ptrIS4_EEEEEEEC1ES5_RKSB_
000000000004a26c w _ZN5boost9function0IvEC1INS_3_bi6bind_tIvNS_4_mfi3mf0Iv13TcpConnectionEENS3_5list1INS3_5valueINS_10shared_ptrIS7_EEEEEEEEEET_NS_11enable_if_cIXntsrNS_11is_integralISG_EE5valueEiE4typeE
000000000004a2e8 w _ZN5boost9function2IviRK11InetAddressEC2ERKS4_
000000000004a320 w _ZN5boost9function2IviRK11InetAddressE11move_assignERS4_
000000000004a40f w _ZNSt8_Rb_treeINSt7__cxx1112basic_stringIcSt11char_traitsIcESaIcEEESt4pairIKS5_N5boost10shared_ptrI13TcpConnectionEEESt10_Select1stISC_ESt4lessIS5_ESaISC_EE8_S_rightEPSt18_Rb_tree_node_base
000000000004a42b w _ZNSt8_Rb_treeINSt7__cxx1112basic_stringIcSt11char_traitsIcESaIcEEESt4pairIKS5_N5boost10shared_ptrI13TcpConnectionEEESt10_Select1stISC_ESt4lessIS5_ESaISC_EE7_S_leftEPSt18_Rb_tree_node_base
000000000004a448 w _ZNSt8_Rb_treeINSt7__cxx1112basic_stringIcSt11char_traitsIcESaIcEEESt4pairIKS5_N5boost10shared_ptrI13TcpConnectionEEESt10_Select1stISC_ESt4lessIS5_ESaISC_EE12_M_drop_nodeEPSt13_Rb_tree_nodeISC_E
000000000004a488 w _ZN5boost3_bi8storage3INS0_5valueIP9TcpServerEENS_3argILi1EEENS6_ILi2EEEEC1ES5_S7_S8_
000000000004a4be w _ZN5boost9function2IviRK11InetAddressE9assign_toINS_3_bi6bind_tIvNS_4_mfi3mf2Iv9TcpServeriS3_EENS6_5list3INS6_5valueIPSA_EENS_3argILi1EEENSG_ILi2EEEEEEEEEvT_
000000000004a528 w _ZN5boost6detail12shared_countC1I13TcpConnectionEEPT_
000000000004a5a2 w _ZN5boost6detail26sp_enable_shared_from_thisI13TcpConnectionS2_S2_EEvPKNS_10shared_ptrIT_EEPKT0_PKNS_23enable_shared_from_thisIT1_EE
000000000004a5de w _ZNSt8_Rb_treeINSt7__cxx1112basic_stringIcSt11char_traitsIcESaIcEEESt4pairIKS5_N5boost10shared_ptrI13TcpConnectionEEESt10_Select1stISC_ESt4lessIS5_ESaISC_EE11lower_boundERS7_
000000000004a630 w _ZNSt8_Rb_treeINSt7__cxx1112basic_stringIcSt11char_traitsIcESaIcEEESt4pairIKS5_N5boost10shared_ptrI13TcpConnectionEEESt10_Select1stISC_ESt4lessIS5_ESaISC_EE3endEv
000000000004a660 w _ZNKSt8_Rb_treeINSt7__cxx1112basic_stringIcSt11char_traitsIcESaIcEEESt4pairIKS5_N5boost10shared_ptrI13TcpConnectionEEESt10_Select1stISC_ESt4lessIS5_ESaISC_EE8key_compEv
000000000004a674 w _ZNSt13_Rb_tree_nodeISt4pairIKNSt7__cxx1112basic_stringIcSt11char_traitsIcESaIcEEEN5boost10shared_ptrI13TcpConnectionEEEE9_M_valptrEv
000000000004a698 w _ZNSt8_Rb_treeINSt7__cxx1112basic_stringIcSt11char_traitsIcESaIcEEESt4pairIKS5_N5boost10shared_ptrI13TcpConnectionEEESt10_Select1stISC_ESt4lessIS5_ESaISC_EE14_M_create_nodeIJRKSt21piecewise_construct_tSt5tupleIJRS7_EESN_IJEEEEEPSt13_Rb_tree_nodeISC_EDpOT_
000000000004a71a w _ZNSt8_Rb_treeINSt7__cxx1112basic_stringIcSt11char_traitsIcESaIcEEESt4pairIKS5_N5boost10shared_ptrI13TcpConnectionEEESt10_Select1stISC_ESt4lessIS5_ESaISC_EE29_M_get_insert_hint_unique_posESt23_Rb_tree_const_iteratorISC_ERS7_
000000000004ab72 w _ZNSt8_Rb_treeINSt7__cxx1112basic_stringIcSt11char_traitsIcESaIcEEESt4pairIKS5_N5boost10shared_ptrI13TcpConnectionEEESt10_Select1stISC_ESt4lessIS5_ESaISC_EE6_S_keyEPKSt13_Rb_tree_nodeISC_E
000000000004aba4 w _ZNSt8_Rb_treeINSt7__cxx1112basic_stringIcSt11char_traitsIcESaIcEEESt4pairIKS5_N5boost10shared_ptrI13TcpConnectionEEESt10_Select1stISC_ESt4lessIS5_ESaISC_EE14_M_insert_nodeEPSt18_Rb_tree_node_baseSK_PSt13_Rb_tree_nodeISC_E
000000000004ac6e w _ZNSt17_Rb_tree_iteratorISt4pairIKNSt7__cxx1112basic_stringIcSt11char_traitsIcESaIcEEEN5boost10shared_ptrI13TcpConnectionEEEEC2EPSt18_Rb_tree_node_base
000000000004ac92 w _ZSt4moveIRP13TcpConnectionEONSt16remove_referenceIT_E4typeEOS4_
000000000004acaa w _ZSt4swapIP13TcpConnectionENSt9enable_ifIXsrSt6__and_IJSt6__not_ISt15__is_tuple_likeIT_EESt21is_move_constructibleIS6_ESt18is_move_assignableIS6_EEE5valueEvE4typeERS6_SG_
000000000004ad02 w _ZN5boost3_bi8storage2INS0_5valueIP9TcpServerEENS_3argILi1EEEEC2ES5_S7_
000000000004ad2e w _ZN5boost9function1IvRKNS_10shared_ptrI13TcpConnectionEEE9assign_toINS_3_bi6bind_tIvNS_4_mfi3mf1Iv9TcpServerS5_EENS8_5list2INS8_5valueIPSC_EENS_3argILi1EEEEEEEEEvT_
000000000004ad98 w _ZNSt8_Rb_treeINSt7__cxx1112basic_stringIcSt11char_traitsIcESaIcEEESt4pairIKS5_N5boost10shared_ptrI13TcpConnectionEEESt10_Select1stISC_ESt4lessIS5_ESaISC_EE11equal_rangeERS7_
000000000004af36 w _ZNKSt8_Rb_treeINSt7__cxx1112basic_stringIcSt11char_traitsIcESaIcEEESt4pairIKS5_N5boost10shared_ptrI13TcpConnectionEEESt10_Select1stISC_ESt4lessIS5_ESaISC_EE4sizeEv
000000000004af52 w _ZNSt8_Rb_treeINSt7__cxx1112basic_stringIcSt11char_traitsIcESaIcEEESt4pairIKS5_N5boost10shared_ptrI13TcpConnectionEEESt10_Select1stISC_ESt4lessIS5_ESaISC_EE12_M_erase_auxESt23_Rb_tree_const_iteratorISC_ESK_
000000000004b03e w _ZN5boost3_bi8storage1INS0_5valueINS_10shared_ptrI13TcpConnectionEEEEEC1ES6_
000000000004b06a w _ZN5boost9function0IvE9assign_toINS_3_bi6bind_tIvNS_4_mfi3mf0Iv13TcpConnectionEENS3_5list1INS3_5valueINS_10shared_ptrIS7_EEEEEEEEEEvT_
000000000004b10a w _ZN5boost9function2IviRK11InetAddressE13assign_to_ownERKS4_
000000000004b1a0 w _ZNSt8_Rb_treeINSt7__cxx1112basic_stringIcSt11char_traitsIcESaIcEEESt4pairIKS5_N5boost10shared_ptrI13TcpConnectionEEESt10_Select1stISC_ESt4lessIS5_ESaISC_EE15_M_destroy_nodeEPSt13_Rb_tree_nodeISC_E
000000000004b1e6 w _ZNSt8_Rb_treeINSt7__cxx1112basic_stringIcSt11char_traitsIcESaIcEEESt4pairIKS5_N5boost10shared_ptrI13TcpConnectionEEESt10_Select1stISC_ESt4lessIS5_ESaISC_EE11_M_put_nodeEPSt13_Rb_tree_nodeISC_E
000000000004b222 w _ZN5boost6detail8function15functor_managerINS_3_bi6bind_tIvNS_4_mfi3mf2Iv9TcpServeriRK11InetAddressEENS3_5list3INS3_5valueIPS7_EENS_3argILi1EEENSG_ILi2EEEEEEEE6manageERKNS1_15function_bufferERSM_NS1_30functor_manager_operation_typeE
000000000004b297 w _ZN5boost6detail8function26void_function_obj_invoker2INS_3_bi6bind_tIvNS_4_mfi3mf2Iv9TcpServeriRK11InetAddressEENS3_5list3INS3_5valueIPS7_EENS_3argILi1EEENSG_ILi2EEEEEEEviSA_E6invokeERNS1_15function_bufferEiSA_
000000000004b2f2 w _ZNK5boost6detail8function13basic_vtable2IviRK11InetAddressE9assign_toINS_3_bi6bind_tIvNS_4_mfi3mf2Iv9TcpServeriS5_EENS8_5list3INS8_5valueIPSC_EENS_3argILi1EEENSI_ILi2EEEEEEEEEbT_RNS1_15function_bufferE
000000000004b32c w _ZN5boost6detail17sp_counted_impl_pI13TcpConnectionEC1EPS2_
000000000004b36b w _ZN5boost14checked_deleteI13TcpConnectionEEvPT_
000000000004b3a4 w _ZNK5boost23enable_shared_from_thisI13TcpConnectionE22_internal_accept_ownerIS1_S1_EEvPKNS_10shared_ptrIT_EEPT0_
000000000004b408 w _ZNSt8_Rb_treeINSt7__cxx1112basic_stringIcSt11char_traitsIcESaIcEEESt4pairIKS5_N5boost10shared_ptrI13TcpConnectionEEESt10_Select1stISC_ESt4lessIS5_ESaISC_EE6_M_endEv
000000000004b424 w _ZNSt8_Rb_treeINSt7__cxx1112basic_stringIcSt11char_traitsIcESaIcEEESt4pairIKS5_N5boost10shared_ptrI13TcpConnectionEEESt10_Select1stISC_ESt4lessIS5_ESaISC_EE14_M_lower_boundEPSt13_Rb_tree_nodeISC_EPSt18_Rb_tree_node_baseRS7_
000000000004b4c0 w _ZN9__gnu_cxx16__aligned_membufISt4pairIKNSt7__cxx1112basic_stringIcSt11char_traitsIcESaIcEEEN5boost10shared_ptrI13TcpConnectionEEEE6_M_ptrEv
000000000004b4e0 w _ZNSt8_Rb_treeINSt7__cxx1112basic_stringIcSt11char_traitsIcESaIcEEESt4pairIKS5_N5boost10shared_ptrI13TcpConnectionEEESt10_Select1stISC_ESt4lessIS5_ESaISC_EE11_M_get_nodeEv
000000000004b50e w _ZNSt8_Rb_treeINSt7__cxx1112basic_stringIcSt11char_traitsIcESaIcEEESt4pairIKS5_N5boost10shared_ptrI13TcpConnectionEEESt10_Select1stISC_ESt4lessIS5_ESaISC_EE17_M_construct_nodeIJRKSt21piecewise_construct_tSt5tupleIJRS7_EESN_IJEEEEEvPSt13_Rb_tree_nodeISC_EDpOT_
000000000004b5ea w _ZNKSt23_Rb_tree_const_iteratorISt4pairIKNSt7__cxx1112basic_stringIcSt11char_traitsIcESaIcEEEN5boost10shared_ptrI13TcpConnectionEEEE13_M_const_castEv
000000000004b618 w _ZNSt8_Rb_treeINSt7__cxx1112basic_stringIcSt11char_traitsIcESaIcEEESt4pairIKS5_N5boost10shared_ptrI13TcpConnectionEEESt10_Select1stISC_ESt4lessIS5_ESaISC_EE12_M_rightmostEv
000000000004b634 w _ZNSt8_Rb_treeINSt7__cxx1112basic_stringIcSt11char_traitsIcESaIcEEESt4pairIKS5_N5boost10shared_ptrI13TcpConnectionEEESt10_Select1stISC_ESt4lessIS5_ESaISC_EE6_S_keyEPKSt18_Rb_tree_node_base
000000000004b666 w _ZNSt8_Rb_treeINSt7__cxx1112basic_stringIcSt11char_traitsIcESaIcEEESt4pairIKS5_N5boost10shared_ptrI13TcpConnectionEEESt10_Select1stISC_ESt4lessIS5_ESaISC_EE24_M_get_insert_unique_posERS7_
000000000004b7e2 w _ZNSt8_Rb_treeINSt7__cxx1112basic_stringIcSt11char_traitsIcESaIcEEESt4pairIKS5_N5boost10shared_ptrI13TcpConnectionEEESt10_Select1stISC_ESt4lessIS5_ESaISC_EE11_M_leftmostEv
000000000004b7fe w _ZNSt17_Rb_tree_iteratorISt4pairIKNSt7__cxx1112basic_stringIcSt11char_traitsIcESaIcEEEN5boost10shared_ptrI13TcpConnectionEEEEmmEv
000000000004b830 w _ZNSt17_Rb_tree_iteratorISt4pairIKNSt7__cxx1112basic_stringIcSt11char_traitsIcESaIcEEEN5boost10shared_ptrI13TcpConnectionEEEEppEv
000000000004b861 w _ZNSt8_Rb_treeINSt7__cxx1112basic_stringIcSt11char_traitsIcESaIcEEESt4pairIKS5_N5boost10shared_ptrI13TcpConnectionEEESt10_Select1stISC_ESt4lessIS5_ESaISC_EE8_S_valueEPKSt13_Rb_tree_nodeISC_E
000000000004b882 w _ZNKSt10_Select1stISt4pairIKNSt7__cxx1112basic_stringIcSt11char_traitsIcESaIcEEEN5boost10shared_ptrI13TcpConnectionEEEEclERKSC_
000000000004b89e w _ZN5boost3_bi8storage1INS0_5valueIP9TcpServerEEEC1ES5_
000000000004b8c2 w _ZN5boost6detail8function15functor_managerINS_3_bi6bind_tIvNS_4_mfi3mf1Iv9TcpServerRKNS_10shared_ptrI13TcpConnectionEEEENS3_5list2INS3_5valueIPS7_EENS_3argILi1EEEEEEEE6manageERKNS1_15function_bufferERSN_NS1_30functor_manager_operation_typeE
000000000004b937 w _ZN5boost6detail8function26void_function_obj_invoker1INS_3_bi6bind_tIvNS_4_mfi3mf1Iv9TcpServerRKNS_10shared_ptrI13TcpConnectionEEEENS3_5list2INS3_5valueIPS7_EENS_3argILi1EEEEEEEvSC_E6invokeERNS1_15function_bufferESC_
000000000004b976 w _ZNK5boost6detail8function13basic_vtable1IvRKNS_10shared_ptrI13TcpConnectionEEE9assign_toINS_3_bi6bind_tIvNS_4_mfi3mf1Iv9TcpServerS7_EENSA_5list2INSA_5valueIPSE_EENS_3argILi1EEEEEEEEEbT_RNS1_15function_bufferE
000000000004b9b0 w _ZNSt8_Rb_treeINSt7__cxx1112basic_stringIcSt11char_traitsIcESaIcEEESt4pairIKS5_N5boost10shared_ptrI13TcpConnectionEEESt10_Select1stISC_ESt4lessIS5_ESaISC_EE14_M_upper_boundEPSt13_Rb_tree_nodeISC_EPSt18_Rb_tree_node_baseRS7_
000000000004ba46 w _ZNSt4pairISt17_Rb_tree_iteratorIS_IKNSt7__cxx1112basic_stringIcSt11char_traitsIcESaIcEEEN5boost10shared_ptrI13TcpConnectionEEEESD_EC1ISD_SD_Lb1EEEOT_OT0_
000000000004ba96 w _ZNSt8_Rb_treeINSt7__cxx1112basic_stringIcSt11char_traitsIcESaIcEEESt4pairIKS5_N5boost10shared_ptrI13TcpConnectionEEESt10_Select1stISC_ESt4lessIS5_ESaISC_EE5beginEv
000000000004bac6 w _ZNKSt23_Rb_tree_const_iteratorISt4pairIKNSt7__cxx1112basic_stringIcSt11char_traitsIcESaIcEEEN5boost10shared_ptrI13TcpConnectionEEEEeqERKSD_
000000000004baf2 w _ZNSt8_Rb_treeINSt7__cxx1112basic_stringIcSt11char_traitsIcESaIcEEESt4pairIKS5_N5boost10shared_ptrI13TcpConnectionEEESt10_Select1stISC_ESt4lessIS5_ESaISC_EE5clearEv
000000000004bb36 w _ZNKSt23_Rb_tree_const_iteratorISt4pairIKNSt7__cxx1112basic_stringIcSt11char_traitsIcESaIcEEEN5boost10shared_ptrI13TcpConnectionEEEEneERKSD_
000000000004bb62 w _ZNSt23_Rb_tree_const_iteratorISt4pairIKNSt7__cxx1112basic_stringIcSt11char_traitsIcESaIcEEEN5boost10shared_ptrI13TcpConnectionEEEEppEi
000000000004bba2 w _ZNSt8_Rb_treeINSt7__cxx1112basic_stringIcSt11char_traitsIcESaIcEEESt4pairIKS5_N5boost10shared_ptrI13TcpConnectionEEESt10_Select1stISC_ESt4lessIS5_ESaISC_EE12_M_erase_auxESt23_Rb_tree_const_iteratorISC_E
000000000004bbfd w _ZN5boost6detail8function15functor_managerINS_3_bi6bind_tIvNS_4_mfi3mf0Iv13TcpConnectionEENS3_5list1INS3_5valueINS_10shared_ptrIS7_EEEEEEEEE6manageERKNS1_15function_bufferERSH_NS1_30functor_manager_operation_typeE
000000000004bc72 w _ZN5boost6detail8function26void_function_obj_invoker0INS_3_bi6bind_tIvNS_4_mfi3mf0Iv13TcpConnectionEENS3_5list1INS3_5valueINS_10shared_ptrIS7_EEEEEEEEvE6invokeERNS1_15function_bufferE
000000000004bc9e w _ZNK5boost6detail8function13basic_vtable0IvE9assign_toINS_3_bi6bind_tIvNS_4_mfi3mf0Iv13TcpConnectionEENS5_5list1INS5_5valueINS_10shared_ptrIS9_EEEEEEEEEEbT_RNS1_15function_bufferE
000000000004bd1e w _ZNSt8_Rb_treeINSt7__cxx1112basic_stringIcSt11char_traitsIcESaIcEEESt4pairIKS5_N5boost10shared_ptrI13TcpConnectionEEESt10_Select1stISC_ESt4lessIS5_ESaISC_EE21_M_get_Node_allocatorEv
000000000004bd36 w _ZNSt16allocator_traitsISaISt13_Rb_tree_nodeISt4pairIKNSt7__cxx1112basic_stringIcSt11char_traitsIcESaIcEEEN5boost10shared_ptrI13TcpConnectionEEEEEE7destroyISD_EEvRSF_PT_
000000000004bd62 w _ZNSt16allocator_traitsISaISt13_Rb_tree_nodeISt4pairIKNSt7__cxx1112basic_stringIcSt11char_traitsIcESaIcEEEN5boost10shared_ptrI13TcpConnectionEEEEEE10deallocateERSF_PSE_m
000000000004bd96 w _ZN5boost9typeindex7type_idINS_3_bi6bind_tIvNS_4_mfi3mf2Iv9TcpServeriRK11InetAddressEENS2_5list3INS2_5valueIPS6_EENS_3argILi1EEENSF_ILi2EEEEEEEEENS0_14stl_type_indexEv
000000000004bda7 w _ZN5boost6detail8function15functor_managerINS_3_bi6bind_tIvNS_4_mfi3mf2Iv9TcpServeriRK11InetAddressEENS3_5list3INS3_5valueIPS7_EENS_3argILi1EEENSG_ILi2EEEEEEEE7managerERKNS1_15function_bufferERSM_NS1_30functor_manager_operation_typeENS1_16function_obj_tagE
000000000004bde4 w _ZN5boost3_bi6bind_tIvNS_4_mfi3mf2Iv9TcpServeriRK11InetAddressEENS0_5list3INS0_5valueIPS4_EENS_3argILi1EEENSD_ILi2EEEEEEclIiS7_EEvOT_OT0_
000000000004be42 w _ZNK5boost6detail8function13basic_vtable2IviRK11InetAddressE9assign_toINS_3_bi6bind_tIvNS_4_mfi3mf2Iv9TcpServeriS5_EENS8_5list3INS8_5valueIPSC_EENS_3argILi1EEENSI_ILi2EEEEEEEEEbT_RNS1_15function_bufferENS1_16function_obj_tagE
000000000004bec4 w _ZNK5boost8weak_ptrI13TcpConnectionE7expiredEv
000000000004beee w _ZN5boost10shared_ptrI13TcpConnectionEC1IS1_EERKNS0_IT_EEPS1_
000000000004bf32 w _ZN5boost8weak_ptrI13TcpConnectionEaSIS1_EERS2_RKNS_10shared_ptrIT_EE
000000000004bf7c w _ZN9__gnu_cxx16__aligned_membufISt4pairIKNSt7__cxx1112basic_stringIcSt11char_traitsIcESaIcEEEN5boost10shared_ptrI13TcpConnectionEEEE7_M_addrEv
000000000004bf94 w _ZNSt16allocator_traitsISaISt13_Rb_tree_nodeISt4pairIKNSt7__cxx1112basic_stringIcSt11char_traitsIcESaIcEEEN5boost10shared_ptrI13TcpConnectionEEEEEE8allocateERSF_m
000000000004bfc4 w _ZNSt16allocator_traitsISaISt13_Rb_tree_nodeISt4pairIKNSt7__cxx1112basic_stringIcSt11char_traitsIcESaIcEEEN5boost10shared_ptrI13TcpConnectionEEEEEE9constructISD_JRKSt21piecewise_construct_tSt5tupleIJRS8_EESL_IJEEEEEvRSF_PT_DpOT0_
000000000004c036 w _ZNSt8_Rb_treeINSt7__cxx1112basic_stringIcSt11char_traitsIcESaIcEEESt4pairIKS5_N5boost10shared_ptrI13TcpConnectionEEESt10_Select1stISC_ESt4lessIS5_ESaISC_EE8_S_valueEPKSt18_Rb_tree_node_base
000000000004c056 w _ZNSt4pairIPSt18_Rb_tree_node_baseS1_EC1IRPSt13_Rb_tree_nodeIS_IKNSt7__cxx1112basic_stringIcSt11char_traitsIcESaIcEEEN5boost10shared_ptrI13TcpConnectionEEEERS1_Lb1EEEOT_OT0_
000000000004c0a0 w _ZNKSt13_Rb_tree_nodeISt4pairIKNSt7__cxx1112basic_stringIcSt11char_traitsIcESaIcEEEN5boost10shared_ptrI13TcpConnectionEEEE9_M_valptrEv
000000000004c0c4 w _ZN5boost9typeindex7type_idINS_3_bi6bind_tIvNS_4_mfi3mf1Iv9TcpServerRKNS_10shared_ptrI13TcpConnectionEEEENS2_5list2INS2_5valueIPS6_EENS_3argILi1EEEEEEEEENS0_14stl_type_indexEv
000000000004c0d5 w _ZN5boost6detail8function15functor_managerINS_3_bi6bind_tIvNS_4_mfi3mf1Iv9TcpServerRKNS_10shared_ptrI13TcpConnectionEEEENS3_5list2INS3_5valueIPS7_EENS_3argILi1EEEEEEEE7managerERKNS1_15function_bufferERSN_NS1_30functor_manager_operation_typeENS1_16function_obj_tagE
000000000004c112 w _ZN5boost3_bi6bind_tIvNS_4_mfi3mf1Iv9TcpServerRKNS_10shared_ptrI13TcpConnectionEEEENS0_5list2INS0_5valueIPS4_EENS_3argILi1EEEEEEclIS9_EEvOT_
000000000004c168 w _ZNK5boost6detail8function13basic_vtable1IvRKNS_10shared_ptrI13TcpConnectionEEE9assign_toINS_3_bi6bind_tIvNS_4_mfi3mf1Iv9TcpServerS7_EENSA_5list2INSA_5valueIPSE_EENS_3argILi1EEEEEEEEEbT_RNS1_15function_bufferENS1_16function_obj_tagE
000000000004c1ea w _ZSt7forwardISt17_Rb_tree_iteratorISt4pairIKNSt7__cxx1112basic_stringIcSt11char_traitsIcESaIcEEEN5boost10shared_ptrI13TcpConnectionEEEEEOT_RNSt16remove_referenceISF_E4typeE
000000000004c202 w _ZN5boost9typeindex7type_idINS_3_bi6bind_tIvNS_4_mfi3mf0Iv13TcpConnectionEENS2_5list1INS2_5valueINS_10shared_ptrIS6_EEEEEEEEEENS0_14stl_type_indexEv
000000000004c213 w _ZN5boost6detail8function15functor_managerINS_3_bi6bind_tIvNS_4_mfi3mf0Iv13TcpConnectionEENS3_5list1INS3_5valueINS_10shared_ptrIS7_EEEEEEEEE7managerERKNS1_15function_bufferERSH_NS1_30functor_manager_operation_typeENS1_16function_obj_tagE
000000000004c250 w _ZN5boost3_bi6bind_tIvNS_4_mfi3mf0Iv13TcpConnectionEENS0_5list1INS0_5valueINS_10shared_ptrIS4_EEEEEEEclEv
000000000004c29c w _ZNK5boost6detail8function13basic_vtable0IvE9assign_toINS_3_bi6bind_tIvNS_4_mfi3mf0Iv13TcpConnectionEENS5_5list1INS5_5valueINS_10shared_ptrIS9_EEEEEEEEEEbT_RNS1_15function_bufferENS1_16function_obj_tagE
000000000004c36e w _ZNSt4pairIKNSt7__cxx1112basic_stringIcSt11char_traitsIcESaIcEEEN5boost10shared_ptrI13TcpConnectionEEED2Ev
000000000004c3a0 w _ZN9__gnu_cxx13new_allocatorISt13_Rb_tree_nodeISt4pairIKNSt7__cxx1112basic_stringIcSt11char_traitsIcESaIcEEEN5boost10shared_ptrI13TcpConnectionEEEEE7destroyISE_EEvPT_
000000000004c3c6 w _ZN9__gnu_cxx13new_allocatorISt13_Rb_tree_nodeISt4pairIKNSt7__cxx1112basic_stringIcSt11char_traitsIcESaIcEEEN5boost10shared_ptrI13TcpConnectionEEEEE10deallocateEPSF_m
000000000004c3f0 w _ZN5boost9typeindex14stl_type_index7type_idINS_3_bi6bind_tIvNS_4_mfi3mf2Iv9TcpServeriRK11InetAddressEENS3_5list3INS3_5valueIPS7_EENS_3argILi1EEENSG_ILi2EEEEEEEEES1_v
000000000004c417 w _ZN5boost6detail8function15functor_managerINS_3_bi6bind_tIvNS_4_mfi3mf2Iv9TcpServeriRK11InetAddressEENS3_5list3INS3_5valueIPS7_EENS_3argILi1EEENSG_ILi2EEEEEEEE7managerERKNS1_15function_bufferERSM_NS1_30functor_manager_operation_typeEN4mpl_5bool_ILb1EEE
000000000004c44a w _ZN5boost3_bi7rrlist2IiRK11InetAddressEC2ERiS4_
000000000004c47e w _ZN5boost3_bi5list3INS0_5valueIP9TcpServerEENS_3argILi1EEENS6_ILi2EEEEclINS_4_mfi3mf2IvS3_iRK11InetAddressEENS0_7rrlist2IiSF_EEEEvNS0_4typeIvEERT_RT0_i
000000000004c512 w _ZNK5boost6detail8function13basic_vtable2IviRK11InetAddressE14assign_functorINS_3_bi6bind_tIvNS_4_mfi3mf2Iv9TcpServeriS5_EENS8_5list3INS8_5valueIPSC_EENS_3argILi1EEENSI_ILi2EEEEEEEEEvT_RNS1_15function_bufferEN4mpl_5bool_ILb1EEE
000000000004c55c w _ZN9__gnu_cxx13new_allocatorISt13_Rb_tree_nodeISt4pairIKNSt7__cxx1112basic_stringIcSt11char_traitsIcESaIcEEEN5boost10shared_ptrI13TcpConnectionEEEEE8allocateEmPKv
000000000004c5ae w _ZN9__gnu_cxx13new_allocatorISt13_Rb_tree_nodeISt4pairIKNSt7__cxx1112basic_stringIcSt11char_traitsIcESaIcEEEN5boost10shared_ptrI13TcpConnectionEEEEE9constructISE_JRKSt21piecewise_construct_tSt5tupleIJRS9_EESL_IJEEEEEvPT_DpOT0_
000000000004c668 w _ZSt7forwardIRPSt13_Rb_tree_nodeISt4pairIKNSt7__cxx1112basic_stringIcSt11char_traitsIcESaIcEEEN5boost10shared_ptrI13TcpConnectionEEEEEOT_RNSt16remove_referenceISH_E4typeE
000000000004c680 w _ZNK9__gnu_cxx16__aligned_membufISt4pairIKNSt7__cxx1112basic_stringIcSt11char_traitsIcESaIcEEEN5boost10shared_ptrI13TcpConnectionEEEE6_M_ptrEv
000000000004c6a0 w _ZN5boost9typeindex14stl_type_index7type_idINS_3_bi6bind_tIvNS_4_mfi3mf1Iv9TcpServerRKNS_10shared_ptrI13TcpConnectionEEEENS3_5list2INS3_5valueIPS7_EENS_3argILi1EEEEEEEEES1_v
000000000004c6c7 w _ZN5boost6detail8function15functor_managerINS_3_bi6bind_tIvNS_4_mfi3mf1Iv9TcpServerRKNS_10shared_ptrI13TcpConnectionEEEENS3_5list2INS3_5valueIPS7_EENS_3argILi1EEEEEEEE7managerERKNS1_15function_bufferERSN_NS1_30functor_manager_operation_typeEN4mpl_5bool_ILb1EEE
000000000004c6fa w _ZN5boost3_bi5list2INS0_5valueIP9TcpServerEENS_3argILi1EEEEclINS_4_mfi3mf1IvS3_RKNS_10shared_ptrI13TcpConnectionEEEENS0_7rrlist1ISG_EEEEvNS0_4typeIvEERT_RT0_i
000000000004c772 w _ZNK5boost6detail8function13basic_vtable1IvRKNS_10shared_ptrI13TcpConnectionEEE14assign_functorINS_3_bi6bind_tIvNS_4_mfi3mf1Iv9TcpServerS7_EENSA_5list2INSA_5valueIPSE_EENS_3argILi1EEEEEEEEEvT_RNS1_15function_bufferEN4mpl_5bool_ILb1EEE
000000000004c7bc w _ZN5boost9typeindex14stl_type_index7type_idINS_3_bi6bind_tIvNS_4_mfi3mf0Iv13TcpConnectionEENS3_5list1INS3_5valueINS_10shared_ptrIS7_EEEEEEEEEES1_v
000000000004c7e3 w _ZN5boost6detail8function15functor_managerINS_3_bi6bind_tIvNS_4_mfi3mf0Iv13TcpConnectionEENS3_5list1INS3_5valueINS_10shared_ptrIS7_EEEEEEEEE7managerERKNS1_15function_bufferERSH_NS1_30functor_manager_operation_typeEN4mpl_5bool_ILb0EEE
000000000004c91c w _ZN5boost3_bi5list1INS0_5valueINS_10shared_ptrI13TcpConnectionEEEEEclINS_4_mfi3mf0IvS4_EENS0_5list0EEEvNS0_4typeIvEERT_RT0_i
000000000004c974 w _ZNK5boost6detail8function13basic_vtable0IvE14assign_functorINS_3_bi6bind_tIvNS_4_mfi3mf0Iv13TcpConnectionEENS5_5list1INS5_5valueINS_10shared_ptrIS9_EEEEEEEEEEvT_RNS1_15function_bufferEN4mpl_5bool_ILb0EEE
000000000004c9ba w _ZN5boost6detail8function22functor_manager_commonINS_3_bi6bind_tIvNS_4_mfi3mf2Iv9TcpServeriRK11InetAddressEENS3_5list3INS3_5valueIPS7_EENS_3argILi1EEENSG_ILi2EEEEEEEE12manage_smallERKNS1_15function_bufferERSM_NS1_30functor_manager_operation_typeE
000000000004cab9 w _ZN5boost3_bi9unwrapperINS_4_mfi3mf2Iv9TcpServeriRK11InetAddressEEE6unwrapERS8_l
000000000004cad6 w _ZNK5boost3_bi7rrlist2IiRK11InetAddressEixIP9TcpServerEERT_RNS0_5valueIS9_EE
000000000004cafa w _ZN5boost3_bi8storage2INS0_5valueIP9TcpServerEENS_3argILi1EEEE3a2_Ev
000000000004cb1e w _ZNK5boost3_bi7rrlist2IiRK11InetAddressEixEPFNS_3argILi1EEEvE
000000000004cb45 w _ZN5boost3_bi8storage3INS0_5valueIP9TcpServerEENS_3argILi1EEENS6_ILi2EEEE3a3_Ev
000000000004cb6a w _ZNK5boost3_bi7rrlist2IiRK11InetAddressEixEPFNS_3argILi2EEEvE
000000000004cb92 w _ZNK5boost4_mfi3mf2Iv9TcpServeriRK11InetAddressEclEPS2_iS5_
000000000004cc0e w _ZNK9__gnu_cxx13new_allocatorISt13_Rb_tree_nodeISt4pairIKNSt7__cxx1112basic_stringIcSt11char_traitsIcESaIcEEEN5boost10shared_ptrI13TcpConnectionEEEEE8max_sizeEv
000000000004cc2c w _ZNSt4pairIKNSt7__cxx1112basic_stringIcSt11char_traitsIcESaIcEEEN5boost10shared_ptrI13TcpConnectionEEEC1IJRS6_EJEEESt21piecewise_construct_tSt5tupleIJDpT_EESF_IJDpT0_EE
000000000004cc64 w _ZNK9__gnu_cxx16__aligned_membufISt4pairIKNSt7__cxx1112basic_stringIcSt11char_traitsIcESaIcEEEN5boost10shared_ptrI13TcpConnectionEEEE7_M_addrEv
000000000004cc7c w _ZN5boost6detail8function22functor_manager_commonINS_3_bi6bind_tIvNS_4_mfi3mf1Iv9TcpServerRKNS_10shared_ptrI13TcpConnectionEEEENS3_5list2INS3_5valueIPS7_EENS_3argILi1EEEEEEEE12manage_smallERKNS1_15function_bufferERSN_NS1_30functor_manager_operation_typeE
000000000004cd7b w _ZN5boost3_bi9unwrapperINS_4_mfi3mf1Iv9TcpServerRKNS_10shared_ptrI13TcpConnectionEEEEE6unwrapERSA_l
000000000004cd98 w _ZNK5boost3_bi7rrlist1IRKNS_10shared_ptrI13TcpConnectionEEEixIP9TcpServerEERT_RNS0_5valueISB_EE
000000000004cdbc w _ZNK5boost4_mfi3mf1Iv9TcpServerRKNS_10shared_ptrI13TcpConnectionEEEclEPS2_S7_
000000000004ce36 w _ZNK5boost3_bi5list0ixINS_10shared_ptrI13TcpConnectionEEEERT_RNS0_5valueIS6_EE
000000000004ce5a w _ZNK5boost4_mfi3mf0Iv13TcpConnectionEclINS_10shared_ptrIS2_EEEEvRT_
000000000004ce92 w _ZN5boost3_bi5valueIP9TcpServerE3getEv
000000000004ceaa w _ZSt7forwardIRK11InetAddressEOT_RNSt16remove_referenceIS3_E4typeE
000000000004cec2 w _ZNSt4pairIKNSt7__cxx1112basic_stringIcSt11char_traitsIcESaIcEEEN5boost10shared_ptrI13TcpConnectionEEEC1IJRS6_EJLm0EEJEJEEERSt5tupleIJDpT_EERSE_IJDpT1_EESt12_Index_tupleIJXspT0_EEESN_IJXspT2_EEE
000000000004cf18 w _ZN5boost3_bi5valueINS_10shared_ptrI13TcpConnectionEEE3getEv
000000000004cf30 w _ZNK5boost4_mfi3mf0Iv13TcpConnectionE4callINS_10shared_ptrIS2_EEEEvRT_PKv
000000000004cfa2 w _ZN5boost10shared_ptrI13TcpConnectionEC2Ev
000000000004cfd2 w _ZN5boost11get_pointerI13TcpConnectionEEPNS_10shared_ptrIT_E12element_typeERKS4_
000000000004cff2 w _ZN5boost6detail17sp_counted_impl_pI13TcpConnectionED1Ev
000000000004d022 w _ZN5boost6detail17sp_counted_impl_pI13TcpConnectionED0Ev
000000000004d054 w _ZN5boost6detail17sp_counted_impl_pI13TcpConnectionE7disposeEv
000000000004d07a w _ZN5boost6detail17sp_counted_impl_pI13TcpConnectionE11get_deleterERKSt9type_info
000000000004d098 w _ZN5boost6detail17sp_counted_impl_pI13TcpConnectionE19get_untyped_deleterEv
000000000004d0b2 T _ZN6Buffer6readFdEiPi
000000000004d1f0 T __libc_csu_init
000000000004d260 T __libc_csu_fini
000000000004d262 T __sym_end
